                 U accept
                 U access
                 U acos
                 U acosh
00000000002250c0 T apl_command
00000000002266b0 T apl_command_ucs
00000000002223c0 T apl_exec
0000000000226030 T apl_exec_ucs
00000000002217a0 T apl_value
                 U asin
                 U asinh
                 U __assert_fail
0000000000225cc0 T assign_var
                 U atan
                 U atan2
                 U atanh
                 U backtrace
                 U backtrace_symbols
                 U backtrace_symbols_fd
                 U bind
00000000004b9558 B __bss_start
                 U cabs
                 U ccos
                 U ccosh
00000000004c4a80 B CERR
00000000004c5120 B CERR_filebuf
                 U cexp
00000000002216d0 T char_scalar
0000000000221920 T char_vector
                 U chdir
                 U chroot
00000000004c4cc0 B CIN
00000000004c4de0 B CIN_filebuf
                 U clearerr
                 U clog
                 U close
                 U closedir
00000000002215f0 T complex_scalar
00000000004b7878 D configure_args
                 U connect
                 U cos
                 U cosh
00000000004c4ba0 B COUT
                 U cpow
                 U csin
                 U csinh
                 U csqrt
                 U ctan
                 U ctanh
                 U cur_term
                 U __cxa_allocate_exception
                 U __cxa_atexit
                 U __cxa_begin_catch
                 U __cxa_demangle
                 U __cxa_end_catch
                 w __cxa_finalize
                 U __cxa_get_exception_ptr
                 U __cxa_pure_virtual
                 U __cxa_rethrow
                 U __cxa_throw
                 U __cxa_throw_bad_array_new_length
                 U __divdc3
                 U dlclose
                 U dlerror
                 U dlopen
                 U dlsym
0000000000221500 T double_scalar
00000000004c5000 B DOUT_filebuf
                 U dup2
00000000004b9558 D _edata
000000000054cb58 B _end
00000000004c47f0 B end_input
                 U environ
                 v _environ
                 U __environ
                 U __errno_location
0000000000223020 T eval__A_fun_B
0000000000223450 T eval__A_fun_X_B
0000000000223200 T eval__A_L_oper_B
00000000002236b0 T eval__A_L_oper_R_B
0000000000223c80 T eval__A_L_oper_R_X_B
0000000000223990 T eval__A_L_oper_X_B
0000000000222f30 T eval__fun
0000000000224050 T eval__fun_B
0000000000224390 T eval__fun_X_B
00000000002241d0 T eval__L_oper_B
0000000000224570 T eval__L_oper_R_B
0000000000224a10 T eval__L_oper_R_X_B
00000000002247c0 T eval__L_oper_X_B
                 U execve
                 U exit
                 U exp
0000000000222ec0 T expand_LF_to_CRLF
                 U fclose
                 U fcntl
                 U __fdelt_chk
                 U fdopen
                 U feclearexcept
                 U feof
                 U ferror
                 U fflush
                 U fftw_destroy_plan
                 U fftw_execute
                 U fftw_free
                 U fftw_import_system_wisdom
                 U fftw_malloc
                 U fftw_plan_dft
                 U fftw_plan_dft_1d
                 U fftw_plan_dft_2d
                 U fftw_plan_dft_3d
                 U fgetc
                 U fgets
                 U fileno
0000000000226d8c T _fini
                 U fmod
                 U fopen
                 U fork
                 U fputs
                 U fread
                 U free
                 U fscanf
                 U fseek
                 U fsync
                 U ftell
                 U fwrite
                 U __fxstat
0000000000221ce0 T get_axis
                 U getc
0000000000221d80 T get_char
                 U getcwd
0000000000221d00 T get_element_count
                 U getenv
0000000000226190 T get_function_ucs
                 U gethostbyname
0000000000221e00 T get_imag
0000000000221db0 T get_int
0000000000222670 T get_owner_count
                 U getpeername
0000000000221cd0 T get_rank
0000000000221de0 T get_real
                 U getrlimit
                 U getsockname
                 U getsockopt
                 U gettimeofday
0000000000221d10 T get_type
0000000000221e20 T get_value
0000000000222680 T get_var_value
000000000054cb48 B glfu
                 w __gmon_start__
                 U gmtime
                 U gmtime_r
00000000004c2258 B got_WINCH
                 U __gxx_personality_v0
000000000054cb30 B info_59
000000000054cb00 B info_62
000000000054cad0 B info_65
00000000004cb690 B info_68
00000000004cb580 B info_71
00000000004cb550 B info_75
00000000000a2af0 T _init
0000000000222e60 T init_libapl
0000000000222f00 T install_get_line_from_user_cb
00000000004c2248 B interrupt_count
00000000004c2250 B interrupt_when
0000000000221420 T int_scalar
                 U ioctl
                 U isatty
0000000000221d50 T is_string
                 w _ITM_deregisterTMCloneTable
                 w _ITM_registerTMCloneTable
00000000004c7348 B job_AB
00000000004c7340 B job_B
                 U listen
                 U localtime
                 U localtime_r
                 U log
                 U malloc
                 U memcmp
                 U memcpy
                 U memmove
                 U memset
                 U mkdir
                 U mktime
                 U mmap
                 U modfl
                 U __muldc3
                 U munmap
                 U nearbyint
                 U open
                 U opendir
                 U pclose
00000000004c6040 B __plot_threads_sema
                 U poll
                 U popen
                 U pow
00000000004c64a0 B __print_sema
0000000000226560 T print_ucs
0000000000224cf0 T print_value
0000000000225600 T print_value_to_string
                 U pthread_create
00000000004c6480 B __pthread_create_sema
                 U pthread_self
                 U puts
                 U random
                 U read
                 U __read_chk
                 U readdir
                 U readlink
                 U __realpath_chk
                 U recv
0000000000221ca0 T release_value
                 U rename
00000000004c7c68 B res_callback
                 U rmdir
                 U round
                 U sbrk
                 U select
                 U sem_destroy
                 U sem_init
                 U sem_post
                 U sem_wait
                 U send
0000000000221ea0 T set_char
00000000002220f0 T set_complex
0000000000222020 T set_double
0000000000221f60 T set_int
                 U setrlimit
                 U setsockopt
                 U setuid
                 U setupterm
00000000002221c0 T set_value
0000000000222950 T set_var_value
                 U shutdown
                 U sigaction
                 U sin
                 U sincos
                 U sinh
                 U snprintf
                 U __snprintf_chk
                 U socket
                 U socketpair
                 U __sprintf_chk
                 U sqrt
                 U srandom
                 U sscanf
                 U __stack_chk_fail
00000000004c47f8 B start_input
                 U stderr
                 U stdin
                 U stdout
                 U strcasecmp
                 U strchr
                 U strcmp
                 U __strcpy_chk
                 U strdup
                 U strerror
                 U strlen
                 U strncasecmp
                 U strncmp
                 U strncpy
                 U strndup
                 U strrchr
                 U strstr
                 U strtod
                 U strtol
                 U strtold
                 U strtoll
                 U tan
                 U tanh
                 U tcgetattr
                 U tgamma
                 U tparm
00000000004c4960 B UERR
00000000004c4ee0 B UERR_filebuf
                 U ungetc
0000000000222d70 T Unicode_to_UTF8
                 U unlink
00000000004c2500 B unused
                 U _Unwind_Resume
00000000004c8280 B uprefs
                 U usleep
0000000000222d10 T UTF8_to_Unicode
                 U write
                 U xcb_change_gc
                 U xcb_change_property
                 U xcb_close_font_checked
                 U xcb_connect
                 U xcb_create_gc
                 U xcb_create_gc_checked
                 U xcb_create_window
                 U xcb_disconnect
                 U xcb_fill_poly
                 U xcb_flush
                 U xcb_free_gc
                 U xcb_generate_id
                 U xcb_get_input_focus
                 U xcb_get_input_focus_reply
                 U xcb_get_setup
                 U xcb_image_text_8_checked
                 U xcb_intern_atom
                 U xcb_intern_atom_reply
                 U xcb_map_window
                 U xcb_open_font_checked
                 U xcb_poll_for_event
                 U xcb_poly_fill_arc
                 U xcb_poly_fill_rectangle
                 U xcb_poly_segment
                 U xcb_query_text_extents
                 U xcb_query_text_extents_reply
                 U xcb_request_check
                 U xcb_set_input_focus
                 U xcb_setup_roots_iterator
                 U __xstat
00000000002125a0 T _Z10CharScalar7UnicodePKc
00000000000fd190 T _Z10common_newm
000000000018ce30 T _Z10draw_pointP16xcb_connection_tjjssjRK20Plot_line_properties
00000000001c3a60 T _Z10event_name10Svar_event
0000000000217da0 T _Z10MORE_ERRORv
000000000018cac0 T _Z10testCookie17xcb_void_cookie_tP16xcb_connection_tPKc
000000000018cb90 T _Z11build_charsPKcm
0000000000212200 T _Z11FloatScalardPKc
000000000018dd00 T _Z11get_atom_IDP16xcb_connection_tiPKc
00000000002210b0 T _Z11libapl_glfu13LineInputModeRK10UCS_stringRS0_RbR11LineHistory
00000000001b4800 T _Z11not_allowedPKc
00000000000fda60 T _Z11print_flagsRSo10ValueFlags
0000000000222d00 T _Z11print_valueP5ValueRSo
000000000011a180 W _Z12scaled_gelsyI2ZZEiR6MatrixIT_ES4_d
000000000011b510 W _Z12scaled_gelsyIdEiR6MatrixIT_ES3_d
00000000000fd640 T _Z13common_deletePv
00000000002123d0 T _Z13ComplexScalarSt7complexIdEPKc
0000000000115950 T _Z13divide_matrixP4CellbllPKS_lS2_
0000000000117700 W _Z13estimate_rankI2ZZEiRK6MatrixIT_Ed
0000000000118e70 W _Z13estimate_rankIdEiRK6MatrixIT_Ed
0000000000194a50 T _Z13open_database7Value_PS_
00000000001a76d0 T _Z13top_of_memoryv
00000000001961e0 T _Z15get_TCP_for_keym
0000000000103aa0 T _Z15throw_apl_error9ErrorCodePKc
0000000000193d30 T _Z16make_string_cellRKNSt7__cxx1112basic_stringIcSt11char_traitsIcESaIcEEEPKc
00000000000fc4b0 T _Z19attention_is_raisedv
00000000000fc4e0 T _Z19interrupt_is_raisedv
00000000000fc490 T _Z20set_attention_raisedPKc
00000000000fc4c0 T _Z20set_interrupt_raisedPKc
00000000000fc4a0 T _Z22clear_attention_raisedPKc
00000000000fc4d0 T _Z22clear_interrupt_raisedPKc
00000000000fd830 T _Z3nowv
0000000000212950 T _Z4Idx0PKc
0000000000117be0 W _Z4larfI2ZZEvR6VectorIT_ES2_R6MatrixIS2_E
0000000000119180 W _Z4larfIdEvR6VectorIT_ES1_R6MatrixIS1_E
0000000000212ac0 T _Z4Str0PKc
0000000000115f90 W _Z4trsmI2ZZEviiRK6MatrixIT_ERS3_
000000000011a5a0 W _Z5gelsyI2ZZEiR6MatrixIT_ES4_d
000000000011b9a0 W _Z5gelsyIdEiR6MatrixIT_ES3_d
0000000000119990 W _Z5laqp2I2ZZEvR6MatrixIT_EPlPS2_Pd
000000000011aee0 W _Z5laqp2IdEvR6MatrixIT_EPlPS1_Pd
0000000000119460 W _Z5larfgI2ZZET_lRS1_R6VectorIS1_E
000000000011aad0 W _Z5larfgIdET_lRS0_R6VectorIS0_E
0000000000212d00 T _Z6Idx0_0PKc
00000000000fc4f0 T _Z6init_1PKcb
00000000000fd010 T _Z6init_2b
00000000001c3f20 T _Z6mirrori
00000000000fdac0 T _Z6nibble7Unicode
00000000000fdb10 T _Z6sixbit7Unicode
0000000000212c50 T _Z6Str0_0PKc
00000000000fd070 T _Z7cleanupb
000000000018d320 T _Z7do_plotP16xcb_connection_tP12xcb_screen_tjjRK22Plot_window_propertiesRK9Plot_data
000000000012dec0 T _Z8get_CERRv
0000000000213950 T _Z9add_eventPK5Value8VH_eventiPKc
00000000000fd880 T _Z9control_Ci
00000000000bb3e0 T _Z9do_AssertPKcS0_S0_i
000000000018cdd0 T _Z9draw_lineP16xcb_connection_tjjssss
000000000018cd60 T _Z9draw_textP16xcb_connection_tjjssPKc
000000000018cc90 T _Z9getFontGCP16xcb_connection_tP12xcb_screen_tjPKcjR17xcb_void_cookie_t
0000000000212040 T _Z9IntScalarlPKc
0000000000116df0 W _Z9laic1_maxI2ZZEvdT_S1_RdRS1_S3_
0000000000118850 W _Z9laic1_maxIdEvdT_S0_RdRS0_S2_
0000000000116130 W _Z9laic1_minI2ZZEvdT_S1_RdRS1_S3_
0000000000118070 W _Z9laic1_minIdEvdT_S0_RdRS0_S2_
000000000018dd40 T _Z9plot_mainPv
00000000001961d0 T _Z9prog_namev
                 U _ZdaPv
                 U _ZdaPvm
                 U _ZdlPv
                 U _ZdlPvm
00000000001e5600 T _ZlsRSo10TokenClass
000000000010d910 T _ZlsRSo2Id
00000000001f0470 T _ZlsRSo7Unicode
00000000001e53b0 T _ZlsRSo8TokenTag
00000000000be360 T _ZlsRSoRK10Format_sub
00000000001f0750 T _ZlsRSoRK10UCS_string
0000000000152220 T _ZlsRSoRK11PrintBuffer
00000000002088a0 T _ZlsRSoRK11UTF8_string
00000000000fda20 T _ZlsRSoRK12Function_PC2
00000000001e9c60 T _ZlsRSoRK12Token_string
00000000001020b0 T _ZlsRSoRK13DynamicObject
00000000000df9e0 T _ZlsRSoRK4Cell
00000000001a7da0 T _ZlsRSoRK5Shape
00000000001e8b60 T _ZlsRSoRK5Token
00000000002116d0 T _ZlsRSoRK5Value
00000000001c7a40 T _ZlsRSoRK6Symbol
0000000000212d90 T _ZlsRSoRK7AP_num3
000000000010b0f0 T _ZlsRSoRK8Function
000000000010eff0 T _ZlsRSoRK9IndexExpr
0000000000122b70 T _ZlsRSoRK9LineLabel
00000000001afb40 W _ZN10Bif_F2_AND17eval_identity_funE7Value_Pi
00000000004b9500 D _ZN10Bif_F2_AND3funE
00000000004c7c20 B _ZN10Bif_F2_AND4_funE
00000000001b4720 W _ZN10Bif_F2_AND7eval_ABE7Value_PS0_
00000000001b2900 W _ZN10Bif_F2_AND8eval_AXBE7Value_PS0_S0_
00000000001ae490 W _ZN10Bif_F2_ANDD0Ev
00000000001ae250 W _ZN10Bif_F2_ANDD1Ev
00000000001ae250 W _ZN10Bif_F2_ANDD2Ev
00000000001af4e0 W _ZN10Bif_F2_LEQ17eval_identity_funE7Value_Pi
00000000004b94a8 D _ZN10Bif_F2_LEQ3funE
00000000004c7960 B _ZN10Bif_F2_LEQ4_funE
00000000001b40c0 W _ZN10Bif_F2_LEQ7eval_ABE7Value_PS0_
00000000001b21e0 W _ZN10Bif_F2_LEQ8eval_AXBE7Value_PS0_S0_
00000000001ae430 W _ZN10Bif_F2_LEQD0Ev
00000000001ae210 W _ZN10Bif_F2_LEQD1Ev
00000000001ae210 W _ZN10Bif_F2_LEQD2Ev
00000000001af2c0 W _ZN10Bif_F2_MEQ17eval_identity_funE7Value_Pi
00000000004b9498 D _ZN10Bif_F2_MEQ3funE
00000000004c78a0 B _ZN10Bif_F2_MEQ4_funE
00000000001b3ea0 W _ZN10Bif_F2_MEQ7eval_ABE7Value_PS0_
00000000001b1f80 W _ZN10Bif_F2_MEQ8eval_AXBE7Value_PS0_S0_
00000000001ae410 W _ZN10Bif_F2_MEQD0Ev
00000000001ae200 W _ZN10Bif_F2_MEQD1Ev
00000000001ae200 W _ZN10Bif_F2_MEQD2Ev
00000000004b9478 D _ZN10Bif_F2_NOR3funE
00000000004c77a0 B _ZN10Bif_F2_NOR4_funE
00000000001b3b80 W _ZN10Bif_F2_NOR7eval_ABE7Value_PS0_
00000000001b1bf0 W _ZN10Bif_F2_NOR8eval_AXBE7Value_PS0_S0_
00000000001ae3e0 W _ZN10Bif_F2_NORD0Ev
00000000001ae1e0 W _ZN10Bif_F2_NORD1Ev
00000000001ae1e0 W _ZN10Bif_F2_NORD2Ev
00000000000d7f70 T _ZN10Bif_REDUCE13reduce_n_wiseE7Value_PR5TokenS0_j
00000000000d74a0 T _ZN10Bif_REDUCE6reduceER5Token7Value_Pj
00000000000d6cb0 T _ZN10Bif_REDUCE9do_reduceERK5ShapeRK6Shape3lP8Function7Value_Pl
00000000000d9bb0 T _ZN10Bif_REDUCE9replicateE7Value_PS0_j
0000000000145ce0 T _ZN10Bif_ROTATE6rotateE7Value_PS0_i
0000000000145860 T _ZN10Bif_ROTATE7reverseE7Value_Pi
0000000000104f60 T _ZN10Executable10clear_bodyEv
00000000001065c0 T _ZN10Executable13setup_lambdasEv
0000000000106f10 T _ZN10Executable15parse_body_lineE13Function_LineRK10UCS_stringbbPKcb
0000000000106790 T _ZN10Executable15parse_body_lineE13Function_LineRK12Token_stringbbPKc
0000000000106280 T _ZN10Executable16setup_one_lambdaElli
0000000000104be0 T _ZN10Executable17reverse_all_tokenER12Token_string
0000000000107c60 W _ZN10Executable18adjust_line_startsEv
0000000000104d10 T _ZN10Executable18decrement_refcountEPKc
0000000000104c40 T _ZN10Executable18increment_refcountEPKc
0000000000105d20 T _ZN10Executable19compute_lambda_bodyER12Token_stringll
0000000000104b40 T _ZN10Executable23reverse_statement_tokenER12Token_string
0000000000107c30 W _ZN10Executable8get_ufunEv
00000000001077e0 T _ZN10ExecutableC1E13Fun_signatureiRK10UCS_stringPKc
0000000000107170 T _ZN10ExecutableC1ERK10UCS_stringb9ParseModePKc
00000000001077e0 T _ZN10ExecutableC2E13Fun_signatureiRK10UCS_stringPKc
0000000000107170 T _ZN10ExecutableC2ERK10UCS_stringb9ParseModePKc
0000000000105220 T _ZN10ExecutableD0Ev
0000000000105140 T _ZN10ExecutableD1Ev
0000000000105140 T _ZN10ExecutableD2Ev
00000000000bdfd0 T _ZN10Format_sub9map_fieldEi
00000000001d3b80 T _ZN10Quad_QUOTE4doneEbPKc
00000000001d54d0 T _ZN10Quad_QUOTE6assignE7Value_PbPKc
00000000004c8220 B _ZN10Quad_QUOTE6promptE
00000000001d39f0 T _ZN10Quad_QUOTEC1Ev
00000000001d39f0 T _ZN10Quad_QUOTEC2Ev
00000000001d6eb0 W _ZN10Quad_QUOTED0Ev
00000000001d61f0 W _ZN10Quad_QUOTED1Ev
00000000001d61f0 W _ZN10Quad_QUOTED2Ev
00000000004b92d0 D _ZN10Quad_TRACE3funE
00000000004c5840 B _ZN10Quad_TRACE4_funE
000000000015aec0 T _ZN10Quad_TRACE6eval_BE7Value_P
000000000015edf0 T _ZN10Quad_TRACE7eval_ABE7Value_PS0_
0000000000163da0 W _ZN10Quad_TRACED0Ev
0000000000163c20 W _ZN10Quad_TRACED1Ev
0000000000163c20 W _ZN10Quad_TRACED2Ev
00000000001a34f0 T _ZN10Statistics8get_nameE9Pfstat_ID
00000000001a30f0 T _ZN10StatisticsD0Ev
00000000001a30e0 T _ZN10StatisticsD1Ev
00000000001a30e0 T _ZN10StatisticsD2Ev
000000000015a990 T _ZN10Stop_Trace10locate_funERK5Value
000000000015eba0 T _ZN10Stop_Trace6assignEP12UserFunctionRK5Valueb
000000000015ac10 T _ZN10Stop_Trace9referenceERKSt6vectorI13Function_LineSaIS1_EEb
00000000001f1a60 T _ZN10UCS_string10append_hexElb
00000000001f3190 T _ZN10UCS_string11append_UTF8EPKh
00000000004c8268 B _ZN10UCS_string11total_countE
00000000001f1cb0 T _ZN10UCS_string12append_floatEd
00000000001f1b50 T _ZN10UCS_string12append_shapeERK5Shape
00000000001f1980 T _ZN10UCS_string13append_numberEl
00000000001f17d0 T _ZN10UCS_string13append_quotedERKS_
00000000001f0df0 T _ZN10UCS_string16round_last_digitEv
00000000001f49e0 T _ZN10UCS_string21from_double_expo_precEdi
00000000001f2010 T _ZN10UCS_string22from_double_fixed_precEdi
00000000001f0d00 T _ZN10UCS_string24remove_trailing_padcharsEv
00000000001efcf0 T _ZN10UCS_string26remove_leading_whitespacesEv
00000000001f0c80 T _ZN10UCS_string27remove_trailing_whitespacesEv
00000000001f0180 T _ZN10UCS_string7map_padEv
00000000001f0ac0 T _ZN10UCS_string8containsE7Unicode
00000000001f1d90 T _ZN10UCS_string8from_bigERd
00000000001f4890 T _ZN10UCS_string8from_intEl
00000000001f10b0 T _ZN10UCS_string8split_wsERS_
00000000004c8260 B _ZN10UCS_string8total_idE
00000000001f4700 T _ZN10UCS_string9from_uintEm
00000000001f0c30 T _ZN10UCS_stringC1E7Unicode
00000000001f3430 T _ZN10UCS_stringC1EdRbRK12PrintContext
00000000001f0c60 T _ZN10UCS_stringC1Em7Unicode
00000000001efba0 T _ZN10UCS_stringC1EPK7Unicodem
00000000001f4620 T _ZN10UCS_stringC1EPKc
00000000001f4150 T _ZN10UCS_stringC1ERK11PrintBufferii
00000000001f2770 T _ZN10UCS_stringC1ERK11UTF8_string
00000000001f2260 T _ZN10UCS_stringC1ERK5Value
00000000001efbd0 T _ZN10UCS_stringC1ERKS_
00000000001efc00 T _ZN10UCS_stringC1ERKS_mm
00000000001f0fc0 T _ZN10UCS_stringC1ERSi
00000000001efb70 T _ZN10UCS_stringC1Ev
00000000001f0c30 T _ZN10UCS_stringC2E7Unicode
00000000001f3430 T _ZN10UCS_stringC2EdRbRK12PrintContext
00000000001f0c60 T _ZN10UCS_stringC2Em7Unicode
00000000001efba0 T _ZN10UCS_stringC2EPK7Unicodem
00000000001f4620 T _ZN10UCS_stringC2EPKc
00000000001f4150 T _ZN10UCS_stringC2ERK11PrintBufferii
00000000001f2770 T _ZN10UCS_stringC2ERK11UTF8_string
00000000001f2260 T _ZN10UCS_stringC2ERK5Value
00000000001efbd0 T _ZN10UCS_stringC2ERKS_
00000000001efc00 T _ZN10UCS_stringC2ERKS_mm
00000000001f0fc0 T _ZN10UCS_stringC2ERSi
00000000001efb70 T _ZN10UCS_stringC2Ev
0000000000121b90 W _ZN10UCS_stringD1Ev
0000000000121b90 W _ZN10UCS_stringD2Ev
00000000001bc480 W _ZN10VALUE_IS_cD0Ev
00000000001bc180 W _ZN10VALUE_IS_cD1Ev
00000000001bc180 W _ZN10VALUE_IS_cD2Ev
00000000001bbc40 W _ZN11ADD_EVENT_cD0Ev
00000000001bbad0 W _ZN11ADD_EVENT_cD1Ev
00000000001bbad0 W _ZN11ADD_EVENT_cD2Ev
00000000001424f0 T _ZN11Bif_F12_RHO10do_reshapeERK5ShapeRK5Value
00000000004b9240 D _ZN11Bif_F12_RHO3funE
00000000004c53a0 B _ZN11Bif_F12_RHO4_funE
000000000013e420 T _ZN11Bif_F12_RHO6eval_BE7Value_P
0000000000142730 T _ZN11Bif_F12_RHO7eval_ABE7Value_PS0_
000000000014ecd0 W _ZN11Bif_F12_RHOD0Ev
000000000014eb60 W _ZN11Bif_F12_RHOD1Ev
000000000014eb60 W _ZN11Bif_F12_RHOD2Ev
00000000004b94c0 D _ZN11Bif_F2_FIND3funE
00000000004c79e0 B _ZN11Bif_F2_FIND4_funE
00000000001a91b0 T _ZN11Bif_F2_FIND7eval_ABE7Value_PS0_
00000000001a8d90 T _ZN11Bif_F2_FIND9containedERK5ShapePK4Cell7Value_PS2_d
00000000001ae350 W _ZN11Bif_F2_FINDD0Ev
00000000001ae170 W _ZN11Bif_F2_FINDD1Ev
00000000001ae170 W _ZN11Bif_F2_FINDD2Ev
00000000004b9228 D _ZN11Bif_F2_LEFT3funE
00000000004c52e0 B _ZN11Bif_F2_LEFT4_funE
000000000014f010 W _ZN11Bif_F2_LEFT6eval_BE7Value_P
000000000014f170 W _ZN11Bif_F2_LEFT7eval_ABE7Value_PS0_
000000000014ecf0 W _ZN11Bif_F2_LEFTD0Ev
000000000014eb80 W _ZN11Bif_F2_LEFTD1Ev
000000000014eb80 W _ZN11Bif_F2_LEFTD2Ev
00000000001af3d0 W _ZN11Bif_F2_LESS17eval_identity_funE7Value_Pi
00000000004b94b0 D _ZN11Bif_F2_LESS3funE
00000000004c7920 B _ZN11Bif_F2_LESS4_funE
00000000001b3fa0 W _ZN11Bif_F2_LESS7eval_ABE7Value_PS0_
00000000001b20b0 W _ZN11Bif_F2_LESS8eval_AXBE7Value_PS0_S0_
00000000001ae420 W _ZN11Bif_F2_LESSD0Ev
00000000001ae2a0 W _ZN11Bif_F2_LESSD1Ev
00000000001ae2a0 W _ZN11Bif_F2_LESSD2Ev
00000000004b9488 D _ZN11Bif_F2_NAND3funE
00000000004c7820 B _ZN11Bif_F2_NAND4_funE
00000000001b3d80 W _ZN11Bif_F2_NAND7eval_ABE7Value_PS0_
00000000001b1e50 W _ZN11Bif_F2_NAND8eval_AXBE7Value_PS0_S0_
00000000001ae400 W _ZN11Bif_F2_NANDD0Ev
00000000001ae1c0 W _ZN11Bif_F2_NANDD1Ev
00000000001ae1c0 W _ZN11Bif_F2_NANDD2Ev
00000000001af0a0 W _ZN11Bif_F2_OR_B17eval_identity_funE7Value_Pi
00000000004b9460 D _ZN11Bif_F2_OR_B3funE
00000000004c76e0 B _ZN11Bif_F2_OR_B4_funE
00000000001b0600 W _ZN11Bif_F2_OR_B6eval_BE7Value_P
00000000001b38a0 W _ZN11Bif_F2_OR_B7eval_ABE7Value_PS0_
00000000001b1860 W _ZN11Bif_F2_OR_B8eval_AXBE7Value_PS0_S0_
00000000001ae3b0 W _ZN11Bif_F2_OR_BD0Ev
00000000001ae220 W _ZN11Bif_F2_OR_BD1Ev
00000000001ae220 W _ZN11Bif_F2_OR_BD2Ev
00000000001aec40 W _ZN11Bif_F2_UNEQ17eval_identity_funE7Value_Pi
00000000004b9410 D _ZN11Bif_F2_UNEQ3funE
00000000004c73e0 B _ZN11Bif_F2_UNEQ4_funE
00000000001b3540 W _ZN11Bif_F2_UNEQ7eval_ABE7Value_PS0_
00000000001b13a0 W _ZN11Bif_F2_UNEQ8eval_AXBE7Value_PS0_S0_
00000000001ae370 W _ZN11Bif_F2_UNEQD0Ev
00000000001ae1f0 W _ZN11Bif_F2_UNEQD1Ev
00000000001ae1f0 W _ZN11Bif_F2_UNEQD2Ev
000000000012ef20 T _ZN11CIN_ostream10set_cursorEii
000000000012f230 W _ZN11CIN_ostreamD0Ev
000000000012f1d0 W _ZN11CIN_ostreamD1Ev
00000000000ffd60 T _ZN11ComplexCell17do_bif_circle_funEP4CelliSt7complexIdE
00000000001007c0 T _ZN11ComplexCell5gammaEdRKd
0000000000101250 W _ZN11ComplexCell7to_typeEv
00000000000fed40 T _ZN11ComplexCellC1Edd
00000000000fe900 T _ZN11ComplexCellC1ESt7complexIdE
00000000000fed40 T _ZN11ComplexCellC2Edd
00000000000fe900 T _ZN11ComplexCellC2ESt7complexIdE
0000000000107400 T _ZN11ExecuteList3fixERK10UCS_stringPKc
0000000000107ce0 W _ZN11ExecuteListD0Ev
0000000000107cc0 W _ZN11ExecuteListD1Ev
0000000000107cc0 W _ZN11ExecuteListD2Ev
00000000001bbd40 W _ZN11GET_VALUE_cD0Ev
00000000001bbbd0 W _ZN11GET_VALUE_cD1Ev
00000000001bbbd0 W _ZN11GET_VALUE_cD2Ev
000000000021eb20 W _ZN11HTML_streamD0Ev
000000000021eac0 W _ZN11HTML_streamD1Ev
00000000001216e0 T _ZN11LineHistory12read_historyEPKc
000000000011fda0 T _ZN11LineHistory12replace_lineERK10UCS_string
000000000011e470 T _ZN11LineHistory12save_historyEPKc
0000000000120690 T _ZN11LineHistory13clear_historyERSo
000000000011e9f0 T _ZN11LineHistory13print_historyERSo
00000000004c4740 B _ZN11LineHistory16quad_INP_historyE
00000000004c4780 B _ZN11LineHistory17quad_quad_historyE
00000000004c47c0 B _ZN11LineHistory18quote_quad_historyE
000000000011ebb0 T _ZN11LineHistory2upEv
000000000011ebf0 T _ZN11LineHistory4downEv
00000000001202f0 T _ZN11LineHistory8add_lineERK10UCS_string
00000000001203e0 T _ZN11LineHistoryC1Ei
00000000001204b0 T _ZN11LineHistoryC1ERK5Nabla
00000000001203e0 T _ZN11LineHistoryC2Ei
00000000001204b0 T _ZN11LineHistoryC2ERK5Nabla
0000000000121bc0 W _ZN11LineHistoryD1Ev
0000000000121bc0 W _ZN11LineHistoryD2Ev
00000000000c4ca0 W _ZN11NamedObject10get_symbolEv
00000000000c4c90 W _ZN11NamedObject9get_valueEv
000000000012c110 T _ZN11NumericCell11do_binomialEP4Cellllb
000000000012d310 T _ZN11NumericCell12cpx_max_realESt7complexIdE
000000000012d4a0 T _ZN11NumericCell7cpx_gcdERSt7complexIdES1_S1_d
000000000012d410 T _ZN11NumericCell7flt_gcdERdddd
000000000012d390 T _ZN11NumericCell7int_gcdERlll
00000000004c6820 B _ZN11Performance10fs_clone_BE
00000000004c6520 B _ZN11Performance11fs_M_join_BE
00000000004c68a0 B _ZN11Performance11fs_SCALAR_BE
00000000004c6e20 B _ZN11Performance12cfs_F2_OR_ABE
00000000004c64e0 B _ZN11Performance12fs_M_join_ABE
00000000004c6860 B _ZN11Performance12fs_SCALAR_ABE
00000000004c6ea0 B _ZN11Performance13cfs_F2_AND_ABE
00000000004c6b20 B _ZN11Performance13cfs_F2_LEQ_ABE
00000000004c69a0 B _ZN11Performance13cfs_F2_MEQ_ABE
00000000004c6d20 B _ZN11Performance13cfs_F2_NOR_ABE
00000000004c6760 B _ZN11Performance13fs_F12_RHO_ABE
00000000004c70a0 B _ZN11Performance14cfs_F12_LOGA_BE
00000000004c72e0 B _ZN11Performance14cfs_F12_PLUS_BE
00000000004c6fe0 B _ZN11Performance14cfs_F12_ROLL_BE
00000000004c68e0 B _ZN11Performance14cfs_F2_FIND_ABE
00000000004c6b60 B _ZN11Performance14cfs_F2_LESS_ABE
00000000004c6da0 B _ZN11Performance14cfs_F2_NAND_ABE
00000000004c6de0 B _ZN11Performance14cfs_F2_OR_B_ABE
00000000004c6a60 B _ZN11Performance14cfs_F2_UNEQ_ABE
00000000001a3110 T _ZN11Performance14get_statisticsE9Pfstat_ID
00000000004c7120 B _ZN11Performance15cfs_F12_BINOM_BE
00000000004c6ba0 B _ZN11Performance15cfs_F12_LOGA_ABE
00000000004c72a0 B _ZN11Performance15cfs_F12_MINUS_BE
00000000004c6fa0 B _ZN11Performance15cfs_F12_PLUS_ABE
00000000004c70e0 B _ZN11Performance15cfs_F12_POWER_BE
00000000004c7020 B _ZN11Performance15cfs_F12_STILE_BE
00000000004c7260 B _ZN11Performance15cfs_F12_TIMES_BE
00000000004c6e60 B _ZN11Performance15cfs_F2_AND_B_ABE
00000000004c6ae0 B _ZN11Performance15cfs_F2_EQUAL_ABE
00000000004c6ce0 B _ZN11Performance15cfs_F2_NOR_B_ABE
00000000004c6c20 B _ZN11Performance16cfs_F12_BINOM_ABE
00000000004c7060 B _ZN11Performance16cfs_F12_CIRCLE_BE
00000000004c7220 B _ZN11Performance16cfs_F12_DIVIDE_BE
00000000004c6f60 B _ZN11Performance16cfs_F12_MINUS_ABE
00000000004c6be0 B _ZN11Performance16cfs_F12_POWER_ABE
00000000004c7160 B _ZN11Performance16cfs_F12_RND_DN_BE
00000000004c71a0 B _ZN11Performance16cfs_F12_RND_UP_BE
00000000004c6920 B _ZN11Performance16cfs_F12_STILE_ABE
00000000004c6f20 B _ZN11Performance16cfs_F12_TIMES_ABE
00000000004c6d60 B _ZN11Performance16cfs_F2_NAND_B_ABE
00000000004c6a20 B _ZN11Performance16cfs_F2_UNEQ_B_ABE
00000000004c6720 B _ZN11Performance16fs_PrintBuffer_BE
00000000004c6960 B _ZN11Performance17cfs_F12_CIRCLE_ABE
00000000004c6ee0 B _ZN11Performance17cfs_F12_DIVIDE_ABE
00000000004c6c60 B _ZN11Performance17cfs_F12_RND_DN_ABE
00000000004c6ca0 B _ZN11Performance17cfs_F12_RND_UP_ABE
00000000004c71e0 B _ZN11Performance17cfs_F12_WITHOUT_BE
00000000004c6aa0 B _ZN11Performance17cfs_F2_EQUAL_B_ABE
00000000004c69e0 B _ZN11Performance17cfs_F2_GREATER_ABE
00000000004c67e0 B _ZN11Performance17fs_OPER2_INNER_ABE
00000000004c67a0 B _ZN11Performance17fs_OPER2_OUTER_ABE
00000000004c66e0 B _ZN11Performance17fs_PrintBuffer1_BE
00000000004c66a0 B _ZN11Performance17fs_PrintBuffer2_BE
00000000004c6660 B _ZN11Performance17fs_PrintBuffer3_BE
00000000004c6620 B _ZN11Performance17fs_PrintBuffer4_BE
00000000004c65e0 B _ZN11Performance17fs_PrintBuffer5_BE
00000000001a34d0 T _ZN11Performance19get_statistics_typeE9Pfstat_ID
00000000001a5a30 T _ZN11Performance5printE9Pfstat_IDRSo
00000000004c6560 B _ZN11Performance9fs_CERR_BE
00000000004c65a0 B _ZN11Performance9fs_COUT_BE
00000000001a38b0 T _ZN11Performance9reset_allEv
00000000001a49b0 T _ZN11Performance9save_dataERSoS0_
000000000013bd60 T _ZN11PointerCell7releaseEPKc
000000000013bc80 T _ZN11PointerCell7to_typeEv
000000000013c320 T _ZN11PointerCellC1EP5ValueRS0_
000000000013c570 T _ZN11PointerCellC1EP5ValueRS0_j
000000000013c320 T _ZN11PointerCellC2EP5ValueRS0_
000000000013c570 T _ZN11PointerCellC2EP5ValueRS0_j
0000000000152420 T _ZN11PrintBuffer10add_columnE7UnicodeiRKS_
0000000000155620 T _ZN11PrintBuffer10align_leftER7ColInfo
0000000000152380 T _ZN11PrintBuffer10append_colERKS_
00000000001537e0 T _ZN11PrintBuffer10append_ucsERK10UCS_string
00000000001530e0 T _ZN11PrintBuffer10pad_heightE7Unicodel
0000000000152900 T _ZN11PrintBuffer12pad_fractionEib
00000000001516b0 T _ZN11PrintBuffer13pad_to_spacesEv
00000000001532a0 T _ZN11PrintBuffer14append_alignedERK10UCS_string7Unicode
0000000000155890 T _ZN11PrintBuffer14do_PrintBufferERK5ValueRK12PrintContextPSo10PrintStyleRSt6vectorIbSaIbEERS8_IS_SaIS_EEPS_
00000000001514e0 T _ZN11PrintBuffer14separator_rowsElRK5Valuebii
0000000000154560 T _ZN11PrintBuffer15add_outer_frameE10PrintStyle
00000000001517b0 T _ZN11PrintBuffer15get_frame_charsE10PrintStyleR7UnicodeS2_S2_S2_S2_S2_
00000000001550f0 T _ZN11PrintBuffer15pb_for_functionERK5Value12PrintContext10PrintStyle
0000000000152fa0 T _ZN11PrintBuffer16pad_height_aboveE7Unicodel
0000000000150eb0 T _ZN11PrintBuffer19print_interruptibleERSoii
0000000000155740 T _ZN11PrintBuffer5alignER7ColInfo
0000000000152610 T _ZN11PrintBuffer5pad_lE7Unicodel
00000000001522a0 T _ZN11PrintBuffer5pad_rE7Unicodel
00000000001557e0 T _ZN11PrintBuffer7add_rowERKS_
00000000001527e0 T _ZN11PrintBuffer7align_jER7ColInfo
0000000000154b20 T _ZN11PrintBuffer8pb_emptyERK5Value12PrintContext10PrintStyle
0000000000151630 T _ZN11PrintBuffer8set_charEii7Unicode
0000000000153b50 T _ZN11PrintBuffer9add_frameE10PrintStyleRK5Shapei
0000000000152d50 T _ZN11PrintBuffer9align_dotER7ColInfo
0000000000153240 T _ZN11PrintBufferC1ERK10UCS_stringRK7ColInfo
0000000000156af0 T _ZN11PrintBufferC1ERK5ValueRK12PrintContextPSo
0000000000150e70 T _ZN11PrintBufferC1Ev
0000000000153240 T _ZN11PrintBufferC2ERK10UCS_stringRK7ColInfo
0000000000156af0 T _ZN11PrintBufferC2ERK5ValueRK12PrintContextPSo
0000000000150e70 T _ZN11PrintBufferC2Ev
0000000000165a30 T _ZN11ProcessorID10disconnectEv
0000000000165720 T _ZN11ProcessorID11read_svopidEP8_IO_FILER6SvoPidRi
0000000000165a40 T _ZN11ProcessorID13read_procauthEP8_IO_FILER8ProcAuthRi
00000000004c5d80 B _ZN11ProcessorID15network_profileE
0000000000165be0 T _ZN11ProcessorID20read_network_profileEPKc
0000000000166260 T _ZN11ProcessorID20read_network_profileEv
00000000004c5db0 B _ZN11ProcessorID2idE
0000000000164aa0 T _ZN11ProcessorID4initEb
00000000001bc200 W _ZN11SET_STATE_cD0Ev
00000000001bc1d0 W _ZN11SET_STATE_cD1Ev
00000000001bc1d0 W _ZN11SET_STATE_cD2Ev
00000000001c1690 W _ZN11Signal_base8recv_TCPEiPciRS0_PSo
00000000001c4600 T _ZN11Svar_record10print_nameERSoPKji
00000000001c4250 T _ZN11Svar_record11set_controlE12Svar_Control
00000000001c3dc0 T _ZN11Svar_record15remove_offeringEv
00000000001c3d70 T _ZN11Svar_record16remove_acceptingEv
00000000001c4520 T _ZN11Svar_record7may_setEi
00000000001c4440 T _ZN11Svar_record7may_useEi
00000000001c40f0 T _ZN11Svar_record7retractEv
00000000001c42f0 T _ZN11Svar_record9set_stateEbPKc
00000000001cadc0 T _ZN11SymbolTable10clear_slotERSoi
00000000001cbc70 T _ZN11SymbolTable13erase_symbolsERSoRK17UCS_string_vector
00000000001ca560 T _ZN11SymbolTable13lookup_symbolERK10UCS_string
00000000001cb900 T _ZN11SymbolTable16erase_one_symbolERK10UCS_string
00000000001ca880 T _ZN11SymbolTable16find_lambda_nameEPK12UserFunction
00000000001caef0 T _ZN11SymbolTable5clearERSo
00000000002081c0 T _ZN11UTF8_string4getcERSi
0000000000207dc0 T _ZN11UTF8_string5toUniEPKhRib
0000000000208920 T _ZN11UTF8_string7un_HTMLEi
0000000000208bc0 T _ZN11UTF8_string9round_0_1Ev
0000000000164260 W _ZN11UTF8_stringC1EPKc
00000000000bad90 W _ZN11UTF8_stringC1EPKhm
0000000000208e70 T _ZN11UTF8_stringC1ERK10UCS_string
0000000000208ce0 T _ZN11UTF8_stringC1ERK5Value
0000000000164260 W _ZN11UTF8_stringC2EPKc
00000000000bad90 W _ZN11UTF8_stringC2EPKhm
0000000000208e70 T _ZN11UTF8_stringC2ERK10UCS_string
0000000000208ce0 T _ZN11UTF8_stringC2ERK5Value
000000000021f590 W _ZN11Workspace_0D1Ev
000000000021f590 W _ZN11Workspace_0D2Ev
00000000004b92c8 D _ZN12Bif_F0_ZILDE3funE
00000000004c57e0 B _ZN12Bif_F0_ZILDE4_funE
000000000013d7e0 T _ZN12Bif_F0_ZILDE5eval_Ev
000000000014ece0 W _ZN12Bif_F0_ZILDED0Ev
000000000014eb70 W _ZN12Bif_F0_ZILDED1Ev
000000000014eb70 W _ZN12Bif_F0_ZILDED2Ev
00000000004b7810 D _ZN12Bif_F12_DROP3funE
00000000004b96a0 B _ZN12Bif_F12_DROP4_funE
00000000000c92a0 T _ZN12Bif_F12_DROP7eval_ABE7Value_PS0_
00000000000cad50 T _ZN12Bif_F12_DROP8eval_AXBE7Value_PS0_S0_
00000000000cb370 W _ZN12Bif_F12_DROPD0Ev
00000000000cb350 W _ZN12Bif_F12_DROPD1Ev
00000000000cb350 W _ZN12Bif_F12_DROPD2Ev
00000000004b94a0 D _ZN12Bif_F12_LOGA3funE
00000000004c78e0 B _ZN12Bif_F12_LOGA4_funE
00000000001b01e0 W _ZN12Bif_F12_LOGA6eval_BE7Value_P
00000000001b31e0 W _ZN12Bif_F12_LOGA7eval_ABE7Value_PS0_
00000000001b1010 W _ZN12Bif_F12_LOGA8eval_AXBE7Value_PS0_S0_
00000000001ae310 W _ZN12Bif_F12_LOGAD0Ev
00000000001ae130 W _ZN12Bif_F12_LOGAD1Ev
00000000001ae130 W _ZN12Bif_F12_LOGAD2Ev
0000000000149580 T _ZN12Bif_F12_PICK18compute_item_shapeE7Value_Pb
000000000014a280 T _ZN12Bif_F12_PICK18disclose_with_axisERK5Shape7Value_Pb
00000000004b92a8 D _ZN12Bif_F12_PICK3funE
00000000004c56e0 B _ZN12Bif_F12_PICK4_funE
000000000014b270 T _ZN12Bif_F12_PICK4pickEPK4Celll7Value_PlP5Value
0000000000150020 W _ZN12Bif_F12_PICK6eval_BE7Value_P
000000000014b9e0 T _ZN12Bif_F12_PICK7eval_ABE7Value_PS0_
00000000000cb390 W _ZN12Bif_F12_PICK7eval_XBE7Value_PS0_
0000000000149910 T _ZN12Bif_F12_PICK8discloseE7Value_Pb
000000000014ec10 W _ZN12Bif_F12_PICKD0Ev
000000000014eaa0 W _ZN12Bif_F12_PICKD1Ev
000000000014eaa0 W _ZN12Bif_F12_PICKD2Ev
00000000004b9450 D _ZN12Bif_F12_PLUS11fun_inverseE
00000000004c7620 B _ZN12Bif_F12_PLUS12_fun_inverseE
00000000001ae6f0 W _ZN12Bif_F12_PLUS17eval_identity_funE7Value_Pi
00000000004b9458 D _ZN12Bif_F12_PLUS3funE
00000000004c7680 B _ZN12Bif_F12_PLUS4_funE
00000000001affd0 W _ZN12Bif_F12_PLUS6eval_BE7Value_P
00000000001b2d20 W _ZN12Bif_F12_PLUS7eval_ABE7Value_PS0_
00000000001b0c80 W _ZN12Bif_F12_PLUS8eval_AXBE7Value_PS0_S0_
00000000001ae2e0 W _ZN12Bif_F12_PLUSD0Ev
00000000001ae100 W _ZN12Bif_F12_PLUSD1Ev
00000000001ae100 W _ZN12Bif_F12_PLUSD2Ev
00000000004b9430 D _ZN12Bif_F12_ROLL3funE
00000000004c7520 B _ZN12Bif_F12_ROLL4_funE
00000000001aad10 T _ZN12Bif_F12_ROLL6eval_BE7Value_P
00000000001a98d0 T _ZN12Bif_F12_ROLL7check_BERK5Valued
00000000001a7f20 T _ZN12Bif_F12_ROLL7eval_ABE7Value_PS0_
00000000001ae340 W _ZN12Bif_F12_ROLLD0Ev
00000000001ae160 W _ZN12Bif_F12_ROLLD1Ev
00000000001ae160 W _ZN12Bif_F12_ROLLD2Ev
00000000000c78b0 T _ZN12Bif_F12_SORT14sort_collatingE7Value_PS0_10Sort_order
00000000000c67b0 T _ZN12Bif_F12_SORT4sortE7Value_P10Sort_order
00000000004b7818 D _ZN12Bif_F12_TAKE3funE
00000000000ca3f0 T _ZN12Bif_F12_TAKE4fillERK5ShapeP4CellR5Value7Value_P
00000000004b96e0 B _ZN12Bif_F12_TAKE4_funE
00000000000c9ad0 T _ZN12Bif_F12_TAKE5firstE7Value_P
00000000000cb450 W _ZN12Bif_F12_TAKE6eval_BE7Value_P
00000000000ca7f0 T _ZN12Bif_F12_TAKE7do_takeERK5Shape7Value_P
00000000000ca9e0 T _ZN12Bif_F12_TAKE7eval_ABE7Value_PS0_
00000000000c8ba0 T _ZN12Bif_F12_TAKE8eval_AXBE7Value_PS0_S0_
00000000000cb380 W _ZN12Bif_F12_TAKED0Ev
00000000000cb360 W _ZN12Bif_F12_TAKED1Ev
00000000000cb360 W _ZN12Bif_F12_TAKED2Ev
00000000001afa30 W _ZN12Bif_F2_AND_B17eval_identity_funE7Value_Pi
00000000004b94f8 D _ZN12Bif_F2_AND_B3funE
00000000004c7be0 B _ZN12Bif_F2_AND_B4_funE
00000000001b0810 W _ZN12Bif_F2_AND_B6eval_BE7Value_P
00000000001b4640 W _ZN12Bif_F2_AND_B7eval_ABE7Value_PS0_
00000000001b27d0 W _ZN12Bif_F2_AND_B8eval_AXBE7Value_PS0_S0_
00000000001ae480 W _ZN12Bif_F2_AND_BD0Ev
00000000001ae240 W _ZN12Bif_F2_AND_BD1Ev
00000000001ae240 W _ZN12Bif_F2_AND_BD2Ev
00000000001af810 W _ZN12Bif_F2_EQUAL17eval_identity_funE7Value_Pi
00000000004b94d0 D _ZN12Bif_F2_EQUAL3funE
00000000004c7a60 B _ZN12Bif_F2_EQUAL4_funE
00000000001b4400 W _ZN12Bif_F2_EQUAL7eval_ABE7Value_PS0_
00000000001b2570 W _ZN12Bif_F2_EQUAL8eval_AXBE7Value_PS0_S0_
00000000001ae460 W _ZN12Bif_F2_EQUALD0Ev
00000000001ae290 W _ZN12Bif_F2_EQUALD1Ev
00000000001ae290 W _ZN12Bif_F2_EQUALD2Ev
00000000004b92b8 D _ZN12Bif_F2_INDEX3funE
00000000004c5760 B _ZN12Bif_F2_INDEX4_funE
0000000000140480 T _ZN12Bif_F2_INDEX7eval_ABE7Value_PS0_
0000000000140ba0 T _ZN12Bif_F2_INDEX8eval_AXBE7Value_PS0_S0_
000000000014ec00 W _ZN12Bif_F2_INDEXD0Ev
000000000014ea90 W _ZN12Bif_F2_INDEXD1Ev
000000000014ea90 W _ZN12Bif_F2_INDEXD2Ev
00000000004b9238 D _ZN12Bif_F2_INTER3funE
00000000004c5360 B _ZN12Bif_F2_INTER4_funE
0000000000141a90 T _ZN12Bif_F2_INTER7eval_ABE7Value_PS0_
000000000014ebc0 W _ZN12Bif_F2_INTERD0Ev
000000000014ea50 W _ZN12Bif_F2_INTERD1Ev
000000000014ea50 W _ZN12Bif_F2_INTERD2Ev
00000000004b9470 D _ZN12Bif_F2_NOR_B3funE
00000000004c7760 B _ZN12Bif_F2_NOR_B4_funE
00000000001b06b0 W _ZN12Bif_F2_NOR_B6eval_BE7Value_P
00000000001b3a60 W _ZN12Bif_F2_NOR_B7eval_ABE7Value_PS0_
00000000001b1ac0 W _ZN12Bif_F2_NOR_B8eval_AXBE7Value_PS0_S0_
00000000001ae3d0 W _ZN12Bif_F2_NOR_BD0Ev
00000000001ae1d0 W _ZN12Bif_F2_NOR_BD1Ev
00000000001ae1d0 W _ZN12Bif_F2_NOR_BD2Ev
00000000004b9220 D _ZN12Bif_F2_RIGHT3funE
00000000004c52a0 B _ZN12Bif_F2_RIGHT4_funE
000000000014f230 W _ZN12Bif_F2_RIGHT6eval_BE7Value_P
000000000014f0c0 W _ZN12Bif_F2_RIGHT7eval_ABE7Value_PS0_
000000000013f980 T _ZN12Bif_F2_RIGHT8eval_AXBE7Value_PS0_S0_
000000000014eba0 W _ZN12Bif_F2_RIGHTD0Ev
000000000014ea30 W _ZN12Bif_F2_RIGHTD1Ev
000000000014ea30 W _ZN12Bif_F2_RIGHTD2Ev
00000000001bbc50 W _ZN12EVENTS_ARE_cD0Ev
00000000001bbae0 W _ZN12EVENTS_ARE_cD1Ev
00000000001bbae0 W _ZN12EVENTS_ARE_cD2Ev
00000000001bbc70 W _ZN12GET_EVENTS_cD0Ev
00000000001bbb00 W _ZN12GET_EVENTS_cD1Ev
00000000001bbb00 W _ZN12GET_EVENTS_cD2Ev
00000000001bbd80 W _ZN12MAKE_OFFER_cD0Ev
00000000001bbc10 W _ZN12MAKE_OFFER_cD1Ev
00000000001bbc10 W _ZN12MAKE_OFFER_cD2Ev
0000000000163d20 W _ZN12QuadFunction6eval_BE7Value_P
0000000000163d40 W _ZN12QuadFunction7eval_ABE7Value_PS0_
00000000001caf60 T _ZN12SystemSymTab10clear_slotERSoi
00000000001cb030 T _ZN12SystemSymTab14add_fun_or_varERK10UCS_string2IdP12QuadFunctionP14SystemVariable
00000000001cafc0 T _ZN12SystemSymTab5clearERSo
00000000001e4ac0 T _ZN12TabExpansion10expand_tabER10UCS_string
00000000001d90f0 T _ZN12TabExpansion13expand_wsnameER10UCS_stringS0_6LibRefS0_
00000000001d9d70 T _ZN12TabExpansion15expand_filenameER10UCS_string10ExpandHintPKcS0_S0_
00000000001d8a00 T _ZN12TabExpansion16expand_user_nameER10UCS_string
00000000001d8830 T _ZN12TabExpansion17show_alternativesER10UCS_stringiR17UCS_string_vector
00000000001de780 T _ZN12TabExpansion18expand_APL_commandER10UCS_string
00000000001de4c0 T _ZN12TabExpansion18expand_command_argER10UCS_string10ExpandHintPKcS0_S0_
00000000001ddaf0 T _ZN12TabExpansion18expand_help_topicsER10UCS_string
00000000001dadd0 T _ZN12TabExpansion18expand_help_topicsEv
00000000001d87a0 T _ZN12TabExpansion21compute_common_lengthEiRK17UCS_string_vector
00000000001d8d10 T _ZN12TabExpansion23read_matching_filenamesEP11__dirstream11UTF8_stringS2_10ExpandHintR17UCS_string_vector
00000000001e1d50 T _ZN12TabExpansion25expand_distinguished_nameER10UCS_string
00000000001d8760 T _ZN12TabExpansionC1ER10UCS_string
00000000001d8760 T _ZN12TabExpansionC2ER10UCS_string
00000000001e8520 T _ZN12Token_string15reverse_from_toEll
00000000001f9c20 T _ZN12UserFunction10eval_ALRXBE7Value_PR5TokenS2_S0_S0_
00000000001fbd80 T _ZN12UserFunction10fix_lambdaER6SymbolRK10UCS_string
00000000001fc670 T _ZN12UserFunction10parse_bodyEPKcbb
00000000001f7f40 T _ZN12UserFunction11eval_fill_BE7Value_P
00000000001f8050 T _ZN12UserFunction12eval_fill_ABE7Value_PS0_
00000000001fdd20 T _ZN12UserFunction14set_trace_stopERSt6vectorI13Function_LineSaIS1_EEb
00000000001fa030 T _ZN12UserFunction16print_val_or_funERSoR5Token
00000000001fc3f0 T _ZN12UserFunction18adjust_line_startsEv
00000000001fafc0 T _ZN12UserFunction28transform_multi_line_stringsEv
00000000001fb3a0 T _ZN12UserFunction30transform_multi_line_strings_3Ev
00000000001fd200 T _ZN12UserFunction3fixERK10UCS_stringRibPKcRK11UTF8_stringb
00000000001fdc40 T _ZN12UserFunction4loadEPKcS1_
00000000001fd560 T _ZN12UserFunction4loadEPKcS1_RPS_
00000000001f75a0 T _ZN12UserFunction5eval_Ev
00000000001f8160 T _ZN12UserFunction6eval_BE7Value_P
00000000001f7a80 T _ZN12UserFunction7destroyEv
00000000001f8470 T _ZN12UserFunction7eval_ABE7Value_PS0_
00000000001f88a0 T _ZN12UserFunction7eval_LBER5Token7Value_P
00000000001f82a0 T _ZN12UserFunction7eval_XBE7Value_PS0_
00000000001f8d50 T _ZN12UserFunction8eval_ALBE7Value_PR5TokenS0_
00000000001f8640 T _ZN12UserFunction8eval_AXBE7Value_PS0_S0_
00000000001f92f0 T _ZN12UserFunction8eval_LRBER5TokenS1_7Value_P
00000000001f8ab0 T _ZN12UserFunction8eval_LXBER5Token7Value_PS2_
00000000001284c0 W _ZN12UserFunction8get_ufunEv
00000000001f98f0 T _ZN12UserFunction9eval_ALRBE7Value_PR5TokenS2_S0_
00000000001f8fe0 T _ZN12UserFunction9eval_ALXBE7Value_PR5TokenS0_S0_
00000000001f95b0 T _ZN12UserFunction9eval_LRXBER5TokenS1_7Value_PS2_
00000000001284a0 W _ZN12UserFunction9get_ufun1Ev
00000000001fcf10 T _ZN12UserFunctionC1E10UCS_stringPKcRK11UTF8_stringbb
00000000001fb9b0 T _ZN12UserFunctionC1E13Fun_signatureiRK10UCS_stringR12Token_string
00000000001fcf10 T _ZN12UserFunctionC2E10UCS_stringPKcRK11UTF8_stringbb
00000000001fb9b0 T _ZN12UserFunctionC2E13Fun_signatureiRK10UCS_stringR12Token_string
00000000001f7c10 T _ZN12UserFunctionD0Ev
00000000001f7b40 T _ZN12UserFunctionD1Ev
00000000001f7b40 T _ZN12UserFunctionD2Ev
0000000000208de0 T _ZN12UTF8_filebuf8overflowEi
00000000002093d0 W _ZN12UTF8_filebufD0Ev
0000000000209440 W _ZN12UTF8_filebufD1Ev
0000000000209440 W _ZN12UTF8_filebufD2Ev
000000000014edd0 W _ZN12UTF8_ostreamD0Ev
000000000014ef50 W _ZN12UTF8_ostreamD1Ev
00000000001af920 W _ZN13Bif_F12_BINOM17eval_identity_funE7Value_Pi
00000000004b94f0 D _ZN13Bif_F12_BINOM3funE
00000000004c7ba0 B _ZN13Bif_F12_BINOM4_funE
00000000001b0760 W _ZN13Bif_F12_BINOM6eval_BE7Value_P
00000000001b4520 W _ZN13Bif_F12_BINOM7eval_ABE7Value_PS0_
00000000001b26a0 W _ZN13Bif_F12_BINOM8eval_AXBE7Value_PS0_S0_
00000000001ae470 W _ZN13Bif_F12_BINOMD0Ev
00000000001ae2b0 W _ZN13Bif_F12_BINOMD1Ev
00000000001ae2b0 W _ZN13Bif_F12_BINOMD2Ev
00000000004b92a0 D _ZN13Bif_F12_COMMA3funE
00000000004c56a0 B _ZN13Bif_F12_COMMA4_funE
0000000000142cc0 T _ZN13Bif_F12_COMMA6eval_BE7Value_P
0000000000144620 T _ZN13Bif_F12_COMMA7eval_ABE7Value_PS0_
000000000014f970 W _ZN13Bif_F12_COMMA7eval_XBE7Value_PS0_
0000000000144fb0 T _ZN13Bif_F12_COMMA8eval_AXBE7Value_PS0_S0_
000000000014ecb0 W _ZN13Bif_F12_COMMAD0Ev
000000000014eb40 W _ZN13Bif_F12_COMMAD1Ev
000000000014eb40 W _ZN13Bif_F12_COMMAD2Ev
00000000004b9288 D _ZN13Bif_F12_EQUIV3funE
00000000004c55e0 B _ZN13Bif_F12_EQUIV4_funE
000000000013e2b0 T _ZN13Bif_F12_EQUIV6eval_BE7Value_P
000000000013e010 T _ZN13Bif_F12_EQUIV7eval_ABE7Value_PS0_
000000000014ebf0 W _ZN13Bif_F12_EQUIVD0Ev
000000000014ea80 W _ZN13Bif_F12_EQUIVD1Ev
000000000014ea80 W _ZN13Bif_F12_EQUIVD2Ev
00000000001ae5e0 W _ZN13Bif_F12_MINUS17eval_identity_funE7Value_Pi
00000000004b9490 D _ZN13Bif_F12_MINUS3funE
00000000004c7860 B _ZN13Bif_F12_MINUS4_funE
00000000001aff20 W _ZN13Bif_F12_MINUS6eval_BE7Value_P
00000000001b2c00 W _ZN13Bif_F12_MINUS7eval_ABE7Value_PS0_
00000000001b0b50 W _ZN13Bif_F12_MINUS8eval_AXBE7Value_PS0_S0_
00000000001ae2d0 W _ZN13Bif_F12_MINUSD0Ev
00000000001ae0f0 W _ZN13Bif_F12_MINUSD1Ev
00000000001ae0f0 W _ZN13Bif_F12_MINUSD2Ev
00000000001aea20 W _ZN13Bif_F12_POWER17eval_identity_funE7Value_Pi
00000000004b9448 D _ZN13Bif_F12_POWER3funE
00000000004c75e0 B _ZN13Bif_F12_POWER4_funE
00000000001b0290 W _ZN13Bif_F12_POWER6eval_BE7Value_P
00000000001b3300 W _ZN13Bif_F12_POWER7eval_ABE7Value_PS0_
00000000001b1140 W _ZN13Bif_F12_POWER8eval_AXBE7Value_PS0_S0_
00000000001ae320 W _ZN13Bif_F12_POWERD0Ev
00000000001ae140 W _ZN13Bif_F12_POWERD1Ev
00000000001ae140 W _ZN13Bif_F12_POWERD2Ev
00000000001aed50 W _ZN13Bif_F12_STILE17eval_identity_funE7Value_Pi
00000000004b9418 D _ZN13Bif_F12_STILE3funE
00000000004c74e0 B _ZN13Bif_F12_STILE4_funE
00000000001b03f0 W _ZN13Bif_F12_STILE6eval_BE7Value_P
000000000014f2f0 W _ZN13Bif_F12_STILE7eval_ABE7Value_PS0_
00000000001b14d0 W _ZN13Bif_F12_STILE8eval_AXBE7Value_PS0_S0_
00000000001ae380 W _ZN13Bif_F12_STILED0Ev
00000000001ae180 W _ZN13Bif_F12_STILED1Ev
00000000001ae180 W _ZN13Bif_F12_STILED2Ev
00000000004b9420 D _ZN13Bif_F12_TIMES11fun_inverseE
00000000004c7420 B _ZN13Bif_F12_TIMES12_fun_inverseE
00000000001ae910 W _ZN13Bif_F12_TIMES17eval_identity_funE7Value_Pi
00000000004b9428 D _ZN13Bif_F12_TIMES3funE
00000000004c7480 B _ZN13Bif_F12_TIMES4_funE
00000000001b0130 W _ZN13Bif_F12_TIMES6eval_BE7Value_P
00000000001b3010 W _ZN13Bif_F12_TIMES7eval_ABE7Value_PS0_
00000000001b0ee0 W _ZN13Bif_F12_TIMES8eval_AXBE7Value_PS0_S0_
00000000001ae300 W _ZN13Bif_F12_TIMESD0Ev
00000000001ae120 W _ZN13Bif_F12_TIMESD1Ev
00000000001ae120 W _ZN13Bif_F12_TIMESD2Ev
00000000004b9230 D _ZN13Bif_F12_UNION3funE
00000000004c5320 B _ZN13Bif_F12_UNION4_funE
000000000014d7b0 T _ZN13Bif_F12_UNION6eval_BE7Value_P
000000000013e5f0 T _ZN13Bif_F12_UNION7eval_ABE7Value_PS0_
000000000014ebb0 W _ZN13Bif_F12_UNIOND0Ev
000000000014ea40 W _ZN13Bif_F12_UNIOND1Ev
000000000014ea40 W _ZN13Bif_F12_UNIOND2Ev
00000000004b9480 D _ZN13Bif_F2_NAND_B3funE
00000000004c77e0 B _ZN13Bif_F2_NAND_B4_funE
00000000001b3c60 W _ZN13Bif_F2_NAND_B7eval_ABE7Value_PS0_
00000000001b1d20 W _ZN13Bif_F2_NAND_B8eval_AXBE7Value_PS0_S0_
00000000001ae3f0 W _ZN13Bif_F2_NAND_BD0Ev
00000000001ae1b0 W _ZN13Bif_F2_NAND_BD1Ev
00000000001ae1b0 W _ZN13Bif_F2_NAND_BD2Ev
00000000001aeb30 W _ZN13Bif_F2_UNEQ_B17eval_identity_funE7Value_Pi
00000000004b9408 D _ZN13Bif_F2_UNEQ_B3funE
00000000004c73a0 B _ZN13Bif_F2_UNEQ_B4_funE
00000000001b3420 W _ZN13Bif_F2_UNEQ_B7eval_ABE7Value_PS0_
00000000001b1270 W _ZN13Bif_F2_UNEQ_B8eval_AXBE7Value_PS0_S0_
00000000001ae360 W _ZN13Bif_F2_UNEQ_BD0Ev
00000000001ae270 W _ZN13Bif_F2_UNEQ_BD1Ev
00000000001ae270 W _ZN13Bif_F2_UNEQ_BD2Ev
0000000000171bd0 T _ZN13DLX_Root_Node5solveEv
00000000001714e0 T _ZN13DLX_Root_Node6presetEPK4CelllS2_
00000000001724f0 T _ZN13DLX_Root_NodeC1ElllRK5Value
00000000001724f0 T _ZN13DLX_Root_NodeC2ElllRK5Value
0000000000173c70 W _ZN13DLX_Root_NodeD1Ev
0000000000173c70 W _ZN13DLX_Root_NodeD2Ev
000000000054cb10 B _ZN13DynamicObject10all_valuesE
0000000000102100 T _ZN13DynamicObject10pIndexExprEv
000000000054cae0 B _ZN13DynamicObject15all_index_exprsE
00000000001020d0 T _ZN13DynamicObject6pValueEv
000000000010f400 T _ZN13IndexIteratorppEv
00000000001bbd60 W _ZN13RETRACT_VAR_cD0Ev
00000000001bbbf0 W _ZN13RETRACT_VAR_cD1Ev
00000000001bbbf0 W _ZN13RETRACT_VAR_cD2Ev
00000000001bbd50 W _ZN13SET_CONTROL_cD0Ev
00000000001bbbe0 W _ZN13SET_CONTROL_cD1Ev
00000000001bbbe0 W _ZN13SET_CONTROL_cD2Ev
0000000000107610 T _ZN13StatementList3fixERK10UCS_stringPKc
0000000000107d30 W _ZN13StatementListD0Ev
0000000000107d10 W _ZN13StatementListD1Ev
0000000000107d10 W _ZN13StatementListD2Ev
00000000004c7c80 B _ZN13Svar_record_P5cacheE
00000000001b82f0 T _ZN13Svar_record_PC1Em
00000000001b82f0 T _ZN13Svar_record_PC2Em
00000000001bc140 W _ZN14ASSIGN_VALUE_cD0Ev
00000000001bc110 W _ZN14ASSIGN_VALUE_cD1Ev
00000000001bc110 W _ZN14ASSIGN_VALUE_cD2Ev
00000000004b94e0 D _ZN14Bif_F12_CIRCLE11fun_inverseE
00000000004c7ae0 B _ZN14Bif_F12_CIRCLE12_fun_inverseE
00000000004b94e8 D _ZN14Bif_F12_CIRCLE3funE
00000000004c7b40 B _ZN14Bif_F12_CIRCLE4_funE
00000000001afe10 W _ZN14Bif_F12_CIRCLE6eval_BE7Value_P
00000000001b2a30 W _ZN14Bif_F12_CIRCLE7eval_ABE7Value_PS0_
00000000001ae2c0 W _ZN14Bif_F12_CIRCLED0Ev
00000000001ae0e0 W _ZN14Bif_F12_CIRCLED1Ev
00000000001ae0e0 W _ZN14Bif_F12_CIRCLED2Ev
00000000004b9298 D _ZN14Bif_F12_COMMA13funE
00000000004c5660 B _ZN14Bif_F12_COMMA14_funE
0000000000142f40 T _ZN14Bif_F12_COMMA16eval_BE7Value_P
0000000000144850 T _ZN14Bif_F12_COMMA17eval_ABE7Value_PS0_
000000000014f860 W _ZN14Bif_F12_COMMA17eval_XBE7Value_PS0_
000000000013dbd0 T _ZN14Bif_F12_COMMA18eval_AXBE7Value_PS0_S0_
000000000014eca0 W _ZN14Bif_F12_COMMA1D0Ev
000000000014eb30 W _ZN14Bif_F12_COMMA1D1Ev
000000000014eb30 W _ZN14Bif_F12_COMMA1D2Ev
00000000001474a0 T _ZN14Bif_F12_DECODE10decode_intEP4CelllPKS0_lS3_l
0000000000147630 T _ZN14Bif_F12_DECODE11decode_realEP4CelllPKS0_lS3_ld
00000000001477b0 T _ZN14Bif_F12_DECODE14decode_complexEP4CelllPKS0_lS3_ld
00000000004b9270 D _ZN14Bif_F12_DECODE3funE
00000000004c5520 B _ZN14Bif_F12_DECODE4_funE
00000000001479f0 T _ZN14Bif_F12_DECODE7eval_ABE7Value_PS0_
000000000014ec50 W _ZN14Bif_F12_DECODED0Ev
000000000014eae0 W _ZN14Bif_F12_DECODED1Ev
000000000014eae0 W _ZN14Bif_F12_DECODED2Ev
00000000001ae800 W _ZN14Bif_F12_DIVIDE17eval_identity_funE7Value_Pi
00000000004b94d8 D _ZN14Bif_F12_DIVIDE3funE
00000000004c7aa0 B _ZN14Bif_F12_DIVIDE4_funE
00000000001b0080 W _ZN14Bif_F12_DIVIDE6eval_BE7Value_P
00000000001b2ef0 W _ZN14Bif_F12_DIVIDE7eval_ABE7Value_PS0_
00000000001b0db0 W _ZN14Bif_F12_DIVIDE8eval_AXBE7Value_PS0_S0_
00000000001ae2f0 W _ZN14Bif_F12_DIVIDED0Ev
00000000001ae110 W _ZN14Bif_F12_DIVIDED1Ev
00000000001ae110 W _ZN14Bif_F12_DIVIDED2Ev
000000000013da00 T _ZN14Bif_F12_DOMINO11eval_fill_BE7Value_P
000000000013edc0 T _ZN14Bif_F12_DOMINO12eval_fill_ABE7Value_PS0_
00000000004b9268 D _ZN14Bif_F12_DOMINO3funE
00000000004c54e0 B _ZN14Bif_F12_DOMINO4_funE
00000000001413c0 T _ZN14Bif_F12_DOMINO6eval_BE7Value_P
000000000013e9d0 T _ZN14Bif_F12_DOMINO7eval_ABE7Value_PS0_
000000000014ec90 W _ZN14Bif_F12_DOMINOD0Ev
000000000014eb20 W _ZN14Bif_F12_DOMINOD1Ev
000000000014eb20 W _ZN14Bif_F12_DOMINOD2Ev
00000000004b9278 D _ZN14Bif_F12_ENCODE3funE
00000000004c5560 B _ZN14Bif_F12_ENCODE4_funE
00000000001485a0 T _ZN14Bif_F12_ENCODE6encodeElP4CellllPKS0_dd
0000000000148420 T _ZN14Bif_F12_ENCODE6encodeElP4CellllPKS0_l
000000000014e030 T _ZN14Bif_F12_ENCODE6encodeElP4CellllPKS0_St7complexIdEd
000000000014e1a0 T _ZN14Bif_F12_ENCODE7eval_ABE7Value_PS0_
000000000014ec40 W _ZN14Bif_F12_ENCODED0Ev
000000000014ead0 W _ZN14Bif_F12_ENCODED1Ev
000000000014ead0 W _ZN14Bif_F12_ENCODED2Ev
00000000000c34c0 T _ZN14Bif_F12_FORMAT12Format_LIFER14format_exampleEd
00000000000c2c50 T _ZN14Bif_F12_FORMAT12Format_LIFER16fill_data_fieldsEdR10UCS_stringS2_S2_Rb
00000000000c28b0 T _ZN14Bif_F12_FORMAT12Format_LIFER16format_left_sideE10UCS_stringbRb
00000000000c1bc0 T _ZN14Bif_F12_FORMAT12Format_LIFER17format_right_sideE10UCS_stringbS1_
00000000000bf750 T _ZN14Bif_F12_FORMAT12Format_LIFERC1E10UCS_string
00000000000bf750 T _ZN14Bif_F12_FORMAT12Format_LIFERC2E10UCS_string
00000000000c4fc0 W _ZN14Bif_F12_FORMAT12Format_LIFERD1Ev
00000000000c4fc0 W _ZN14Bif_F12_FORMAT12Format_LIFERD2Ev
00000000000be370 T _ZN14Bif_F12_FORMAT14monadic_formatE7Value_P
00000000000c0960 T _ZN14Bif_F12_FORMAT15format_col_specEiiPK4Cellii
00000000000be210 T _ZN14Bif_F12_FORMAT15is_control_charE7Unicode
00000000000c3b00 T _ZN14Bif_F12_FORMAT17format_by_exampleE7Value_PS0_
00000000000be230 T _ZN14Bif_F12_FORMAT17format_spec_floatEdi
00000000000c12a0 T _ZN14Bif_F12_FORMAT23format_by_specificationE7Value_PS0_
00000000000c0250 T _ZN14Bif_F12_FORMAT26split_example_into_columnsERK10UCS_stringRSt6vectorIS0_SaIS0_EE
00000000004b77e0 D _ZN14Bif_F12_FORMAT3funE
00000000004b95a0 B _ZN14Bif_F12_FORMAT4_funE
00000000000be900 T _ZN14Bif_F12_FORMAT6eval_BE7Value_P
00000000000bffe0 T _ZN14Bif_F12_FORMAT7add_rowER11PrintBufferibb7UnicodeR10UCS_string
00000000000c4800 T _ZN14Bif_F12_FORMAT7eval_ABE7Value_PS0_
00000000000c4f30 W _ZN14Bif_F12_FORMATD0Ev
00000000000c4e10 W _ZN14Bif_F12_FORMATD1Ev
00000000000c4e10 W _ZN14Bif_F12_FORMATD2Ev
00000000004b9280 D _ZN14Bif_F12_NEQUIV3funE
00000000004c55a0 B _ZN14Bif_F12_NEQUIV4_funE
000000000013d890 T _ZN14Bif_F12_NEQUIV6eval_BE7Value_P
000000000013dd70 T _ZN14Bif_F12_NEQUIV7eval_ABE7Value_PS0_
000000000014ebe0 W _ZN14Bif_F12_NEQUIVD0Ev
000000000014ea70 W _ZN14Bif_F12_NEQUIVD1Ev
000000000014ea70 W _ZN14Bif_F12_NEQUIVD2Ev
00000000001aee60 W _ZN14Bif_F12_RND_DN17eval_identity_funE7Value_Pi
00000000004b9438 D _ZN14Bif_F12_RND_DN3funE
00000000004c7560 B _ZN14Bif_F12_RND_DN4_funE
00000000001b04a0 W _ZN14Bif_F12_RND_DN6eval_BE7Value_P
00000000001b3660 W _ZN14Bif_F12_RND_DN7eval_ABE7Value_PS0_
00000000001b1600 W _ZN14Bif_F12_RND_DN8eval_AXBE7Value_PS0_S0_
00000000001ae390 W _ZN14Bif_F12_RND_DND0Ev
00000000001ae190 W _ZN14Bif_F12_RND_DND1Ev
00000000001ae190 W _ZN14Bif_F12_RND_DND2Ev
00000000001aef80 W _ZN14Bif_F12_RND_UP17eval_identity_funE7Value_Pi
00000000004b9440 D _ZN14Bif_F12_RND_UP3funE
00000000004c75a0 B _ZN14Bif_F12_RND_UP4_funE
00000000001b0550 W _ZN14Bif_F12_RND_UP6eval_BE7Value_P
00000000001b3780 W _ZN14Bif_F12_RND_UP7eval_ABE7Value_PS0_
00000000001b1730 W _ZN14Bif_F12_RND_UP8eval_AXBE7Value_PS0_S0_
00000000001ae3a0 W _ZN14Bif_F12_RND_UPD0Ev
00000000001ae1a0 W _ZN14Bif_F12_RND_UPD1Ev
00000000001ae1a0 W _ZN14Bif_F12_RND_UPD2Ev
00000000004b9260 D _ZN14Bif_F12_ROTATE3funE
00000000004c54a0 B _ZN14Bif_F12_ROTATE4_funE
000000000014fb30 W _ZN14Bif_F12_ROTATE6eval_BE7Value_P
000000000014fcf0 W _ZN14Bif_F12_ROTATE7eval_ABE7Value_PS0_
0000000000145c20 T _ZN14Bif_F12_ROTATE7eval_XBE7Value_PS0_
00000000001461a0 T _ZN14Bif_F12_ROTATE8eval_AXBE7Value_PS0_S0_
000000000014ec80 W _ZN14Bif_F12_ROTATED0Ev
000000000014eb10 W _ZN14Bif_F12_ROTATED1Ev
000000000014eb10 W _ZN14Bif_F12_ROTATED2Ev
00000000004c5240 B _ZN14Bif_F1_EXECUTE12copy_pendingE
000000000014c840 T _ZN14Bif_F1_EXECUTE15execute_commandER10UCS_string
000000000014d4c0 T _ZN14Bif_F1_EXECUTE17execute_statementER10UCS_string
00000000004b92c0 D _ZN14Bif_F1_EXECUTE3funE
00000000004c57a0 B _ZN14Bif_F1_EXECUTE4_funE
000000000014d6e0 T _ZN14Bif_F1_EXECUTE6eval_BE7Value_P
000000000014ebd0 W _ZN14Bif_F1_EXECUTED0Ev
000000000014ea60 W _ZN14Bif_F1_EXECUTED1Ev
000000000014ea60 W _ZN14Bif_F1_EXECUTED2Ev
00000000001af700 W _ZN14Bif_F2_EQUAL_B17eval_identity_funE7Value_Pi
00000000004b94c8 D _ZN14Bif_F2_EQUAL_B3funE
00000000004c7a20 B _ZN14Bif_F2_EQUAL_B4_funE
00000000001b42e0 W _ZN14Bif_F2_EQUAL_B7eval_ABE7Value_PS0_
00000000001b2440 W _ZN14Bif_F2_EQUAL_B8eval_AXBE7Value_PS0_S0_
00000000001ae450 W _ZN14Bif_F2_EQUAL_BD0Ev
00000000001ae280 W _ZN14Bif_F2_EQUAL_BD1Ev
00000000001ae280 W _ZN14Bif_F2_EQUAL_BD2Ev
00000000001af5f0 W _ZN14Bif_F2_GREATER17eval_identity_funE7Value_Pi
00000000004b94b8 D _ZN14Bif_F2_GREATER3funE
00000000004c79a0 B _ZN14Bif_F2_GREATER4_funE
00000000001b41e0 W _ZN14Bif_F2_GREATER7eval_ABE7Value_PS0_
00000000001b2310 W _ZN14Bif_F2_GREATER8eval_AXBE7Value_PS0_S0_
00000000001ae440 W _ZN14Bif_F2_GREATERD0Ev
00000000001ae260 W _ZN14Bif_F2_GREATERD1Ev
00000000001ae260 W _ZN14Bif_F2_GREATERD2Ev
00000000004b7828 D _ZN14Bif_OPER1_EACH3funE
00000000004b97a0 B _ZN14Bif_OPER1_EACH4_funE
00000000000cd160 T _ZN14Bif_OPER1_EACH7eval_LBER5Token7Value_P
00000000000cbc00 T _ZN14Bif_OPER1_EACH8eval_ALBE7Value_PR5TokenS0_
00000000000ce2a0 W _ZN14Bif_OPER1_EACHD0Ev
00000000000ce290 W _ZN14Bif_OPER1_EACHD1Ev
00000000000ce290 W _ZN14Bif_OPER1_EACHD2Ev
00000000004b7870 D _ZN14Bif_OPER1_SCAN3funE
00000000004b9b80 B _ZN14Bif_OPER1_SCAN4_funE
00000000000dd040 W _ZN14Bif_OPER1_SCAN7eval_ABE7Value_PS0_
00000000000dce90 W _ZN14Bif_OPER1_SCAN7eval_LBER5Token7Value_P
00000000000dcb40 T _ZN14Bif_OPER1_SCAN8eval_AXBE7Value_PS0_S0_
00000000000dc0a0 T _ZN14Bif_OPER1_SCAN8eval_LXBER5Token7Value_PS2_
00000000000dcde0 W _ZN14Bif_OPER1_SCAND0Ev
00000000000dcdc0 W _ZN14Bif_OPER1_SCAND1Ev
00000000000dcdc0 W _ZN14Bif_OPER1_SCAND2Ev
00000000000d5a00 T _ZN14Bif_OPER2_RANK10eval_ALRXBE7Value_PR5TokenS2_S0_S0_
00000000000d5540 T _ZN14Bif_OPER2_RANK10y123_to_ABE7Value_PRiS1_
00000000000d5d70 T _ZN14Bif_OPER2_RANK12split_y123_BE7Value_PRS0_S1_
00000000004b7850 D _ZN14Bif_OPER2_RANK3funE
00000000004b9a40 B _ZN14Bif_OPER2_RANK4_funE
00000000000d2bb0 T _ZN14Bif_OPER2_RANK7do_LyXBER5Token7Value_PS2_i
00000000000d3990 T _ZN14Bif_OPER2_RANK8do_ALyXBE7Value_PiR5TokenS0_S0_i
00000000000d4fc0 T _ZN14Bif_OPER2_RANK8eval_LRBER5TokenS1_7Value_P
00000000000d56c0 T _ZN14Bif_OPER2_RANK9eval_ALRBE7Value_PR5TokenS2_S0_
00000000000d5270 T _ZN14Bif_OPER2_RANK9eval_LRXBER5TokenS1_7Value_PS2_
00000000000d4e90 T _ZN14Bif_OPER2_RANK9y123_to_BE7Value_PRi
00000000000d6ca0 W _ZN14Bif_OPER2_RANKD0Ev
00000000000d6c90 W _ZN14Bif_OPER2_RANKD1Ev
00000000000d6c90 W _ZN14Bif_OPER2_RANKD2Ev
00000000000c6280 T _ZN14CollatingCache11greater_vecERK7IntCellS2_PKv
00000000000c64b0 T _ZN14CollatingCache11smaller_vecERK7IntCellS2_PKv
00000000000c70a0 T _ZN14CollatingCacheC1ERK5ValuePK4Celll
00000000000c70a0 T _ZN14CollatingCacheC2ERK5ValuePK4Celll
000000000021eba0 W _ZN14HTML_streambuf8overflowEi
000000000021ea90 W _ZN14HTML_streambufD0Ev
000000000021ea70 W _ZN14HTML_streambufD1Ev
000000000021ea70 W _ZN14HTML_streambufD2Ev
000000000012a160 T _ZN14NativeFunction10eval_ALRXBE7Value_PR5TokenS2_S0_S0_
0000000000129390 T _ZN14NativeFunction11eval_fill_BE7Value_P
0000000000129450 T _ZN14NativeFunction12eval_fill_ABE7Value_PS0_
000000000012a5c0 T _ZN14NativeFunction12open_so_fileER10UCS_stringS1_
000000000012a3f0 T _ZN14NativeFunction12try_one_fileEPKcR10UCS_string
00000000004c4910 B _ZN14NativeFunction15valid_functionsE
0000000000129580 T _ZN14NativeFunction17eval_identity_funE7Value_Pi
000000000012aed0 T _ZN14NativeFunction18load_emacs_libraryEPKc
000000000012b770 T _ZN14NativeFunction3fixERK10UCS_stringS2_
00000000001289d0 T _ZN14NativeFunction5eval_Ev
0000000000128dd0 T _ZN14NativeFunction6eval_BE7Value_P
000000000012a540 T _ZN14NativeFunction7cleanupEv
00000000001288e0 T _ZN14NativeFunction7destroyEv
0000000000128e90 T _ZN14NativeFunction7eval_ABE7Value_PS0_
0000000000129640 T _ZN14NativeFunction7eval_LBER5Token7Value_P
0000000000128fc0 T _ZN14NativeFunction7eval_XBE7Value_PS0_
0000000000129720 T _ZN14NativeFunction8eval_ALBE7Value_PR5TokenS0_
0000000000129160 T _ZN14NativeFunction8eval_AXBE7Value_PS0_S0_
0000000000129890 T _ZN14NativeFunction8eval_LRBER5TokenS1_7Value_P
0000000000129b50 T _ZN14NativeFunction8eval_LXBER5Token7Value_PS2_
00000000001299b0 T _ZN14NativeFunction9eval_ALRBE7Value_PR5TokenS2_S0_
0000000000129d10 T _ZN14NativeFunction9eval_ALXBE7Value_PR5TokenS0_S0_
0000000000129f70 T _ZN14NativeFunction9eval_LRXBER5TokenS1_7Value_PS2_
000000000012b100 T _ZN14NativeFunctionC1ERK10UCS_stringS2_
000000000012b100 T _ZN14NativeFunctionC2ERK10UCS_stringS2_
00000000001288c0 T _ZN14NativeFunctionD0Ev
00000000001287d0 T _ZN14NativeFunctionD1Ev
00000000001287d0 T _ZN14NativeFunctionD2Ev
00000000001aa590 T _ZN14ScalarFunction11do_scalar_BER9ErrorCode7Value_PM4CellKFS0_PS3_E
00000000001a8680 T _ZN14ScalarFunction11eval_fill_BE7Value_P
00000000001aae00 T _ZN14ScalarFunction11PF_scalar_BER14Thread_context
00000000001ab120 T _ZN14ScalarFunction12do_scalar_ABER9ErrorCode7Value_PS2_M4CellKFS0_PS3_PKS3_E
00000000001a8240 T _ZN14ScalarFunction12eval_fill_ABE7Value_PS0_
00000000001ad2b0 T _ZN14ScalarFunction12PF_scalar_ABER14Thread_context
00000000001aaad0 T _ZN14ScalarFunction13eval_scalar_BE7Value_PM4CellKF9ErrorCodePS1_E
00000000001ac180 T _ZN14ScalarFunction14eval_scalar_ABE7Value_PS0_M4CellKF9ErrorCodePS1_PKS1_E
00000000001ac870 T _ZN14ScalarFunction15eval_scalar_AXBE7Value_PPbS0_M4CellKF9ErrorCodePS2_PKS2_Eb
00000000001acd70 T _ZN14ScalarFunction15eval_scalar_AXBE7Value_PS0_S0_M4CellKF9ErrorCodePS1_PKS1_E
00000000001ac3f0 T _ZN14ScalarFunction15expand_pointersEP4CellR5ValuePKS0_S5_MS0_KF9ErrorCodeS1_S5_E
00000000001a8880 T _ZN14ScalarFunction24eval_scalar_identity_funE7Value_PiS0_
00000000004cb5a0 B _ZN14StateIndicator15top_level_errorE
00000000001b67a0 T _ZN14StateIndicator16statement_resultER5Tokenb
00000000001b60b0 T _ZN14StateIndicator3runEv
00000000001b4990 T _ZN14StateIndicator4goonE13Function_LinePKc
00000000001b5f40 T _ZN14StateIndicator4jumpE7Value_P
00000000001b6250 T _ZN14StateIndicator5get_LEv
00000000001b62c0 T _ZN14StateIndicator5get_REv
00000000001b6330 T _ZN14StateIndicator5get_XEv
00000000001b4ae0 T _ZN14StateIndicator5retryEPKc
00000000001b6380 T _ZN14StateIndicator5set_LE7Value_P
00000000001b6540 T _ZN14StateIndicator5set_RE7Value_P
00000000001b6700 T _ZN14StateIndicator5set_XE7Value_P
00000000001b60a0 T _ZN14StateIndicator6escapeEv
00000000001b4850 T _ZN14StateIndicatorC1EP10ExecutablePS_
00000000001b4850 T _ZN14StateIndicatorC2EP10ExecutablePS_
00000000001b48f0 T _ZN14StateIndicatorD1Ev
00000000001b48f0 T _ZN14StateIndicatorD2Ev
000000000054cb40 B _ZN14static_Objects16show_destructorsE
000000000054cb41 B _ZN14static_Objects17show_constructorsE
000000000021f730 T _ZN14static_ObjectsC1EPKcS1_
000000000021f730 T _ZN14static_ObjectsC2EPKcS1_
000000000021f650 T _ZN14static_ObjectsD1Ev
000000000021f650 T _ZN14static_ObjectsD2Ev
0000000000192840 W _ZN14SystemVariable10resolve_lvEPKc
00000000001cd120 T _ZN14SystemVariable14assign_indexedE7Value_PS0_
00000000001cd070 T _ZN14SystemVariable6assignE7Value_PbPKc
0000000000192830 W _ZN14SystemVariable7expungeEv
00000000001d7f30 W _ZN14SystemVariableD0Ev
00000000001d5b30 W _ZN14SystemVariableD1Ev
00000000001d5b30 W _ZN14SystemVariableD2Ev
00000000001e4c70 T _ZN14Thread_context10PF_no_workERS_
00000000001e5290 T _ZN14Thread_context11M_lock_poolEv
00000000001e4e20 T _ZN14Thread_context15init_sequentialEb
00000000004c8250 B _ZN14Thread_context15thread_contextsE
00000000004b9510 D _ZN14Thread_context17active_core_countE
00000000004c8248 B _ZN14Thread_context17busy_worker_countE
00000000001e4c10 T _ZN14Thread_context19PF_lock_unlock_poolERS_
00000000004c824c B _ZN14Thread_context21thread_contexts_countE
00000000004b9518 D _ZN14Thread_context7do_workE
00000000001e5010 T _ZN14Thread_context9print_allERSo
00000000001e4d10 T _ZN14Thread_contextC1Ev
00000000001e4d10 T _ZN14Thread_contextC2Ev
00000000004b9290 D _ZN15Bif_F12_ELEMENT3funE
00000000004c5620 B _ZN15Bif_F12_ELEMENT4_funE
000000000013f590 T _ZN15Bif_F12_ELEMENT6eval_BE7Value_P
000000000013f080 T _ZN15Bif_F12_ELEMENT7eval_ABE7Value_PS0_
000000000014ec30 W _ZN15Bif_F12_ELEMENTD0Ev
000000000014eac0 W _ZN15Bif_F12_ELEMENTD1Ev
000000000014eac0 W _ZN15Bif_F12_ELEMENTD2Ev
00000000004b9258 D _ZN15Bif_F12_ROTATE13funE
00000000004c5460 B _ZN15Bif_F12_ROTATE14_funE
000000000014fa80 W _ZN15Bif_F12_ROTATE16eval_BE7Value_P
000000000014fbe0 W _ZN15Bif_F12_ROTATE17eval_ABE7Value_PS0_
0000000000145c20 T _ZN15Bif_F12_ROTATE17eval_XBE7Value_PS0_
00000000001461a0 T _ZN15Bif_F12_ROTATE18eval_AXBE7Value_PS0_S0_
000000000014ec70 W _ZN15Bif_F12_ROTATE1D0Ev
000000000014eb00 W _ZN15Bif_F12_ROTATE1D1Ev
000000000014eb00 W _ZN15Bif_F12_ROTATE1D2Ev
00000000001a99e0 T _ZN15Bif_F12_WITHOUT13large_eval_ABEPK5ValueS2_
00000000004b9400 D _ZN15Bif_F12_WITHOUT3funE
00000000004c7360 B _ZN15Bif_F12_WITHOUT4_funE
00000000001b0340 W _ZN15Bif_F12_WITHOUT6eval_BE7Value_P
00000000001aa1a0 T _ZN15Bif_F12_WITHOUT7eval_ABE7Value_PS0_
00000000001ae330 W _ZN15Bif_F12_WITHOUTD0Ev
00000000001ae150 W _ZN15Bif_F12_WITHOUTD1Ev
00000000001ae150 W _ZN15Bif_F12_WITHOUTD2Ev
00000000004b7868 D _ZN15Bif_OPER1_SCAN13funE
00000000004b9b40 B _ZN15Bif_OPER1_SCAN14_funE
00000000000dcf30 W _ZN15Bif_OPER1_SCAN17eval_ABE7Value_PS0_
00000000000dcdf0 W _ZN15Bif_OPER1_SCAN17eval_LBER5Token7Value_P
00000000000dcc70 T _ZN15Bif_OPER1_SCAN18eval_AXBE7Value_PS0_S0_
00000000000dc170 T _ZN15Bif_OPER1_SCAN18eval_LXBER5Token7Value_PS2_
00000000000dcdd0 W _ZN15Bif_OPER1_SCAN1D0Ev
00000000000dcdb0 W _ZN15Bif_OPER1_SCAN1D1Ev
00000000000dcdb0 W _ZN15Bif_OPER1_SCAN1D2Ev
00000000000cfb00 T _ZN15Bif_OPER2_INNER23PF_scalar_inner_productER14Thread_context
00000000004b7838 D _ZN15Bif_OPER2_INNER3funE
00000000004b9860 B _ZN15Bif_OPER2_INNER3jobE
00000000004b98e0 B _ZN15Bif_OPER2_INNER4_funE
00000000000cfcf0 T _ZN15Bif_OPER2_INNER9eval_ALRBE7Value_PR5TokenS2_S0_
00000000000d15c0 W _ZN15Bif_OPER2_INNERD0Ev
00000000000d15b0 W _ZN15Bif_OPER2_INNERD1Ev
00000000000d15b0 W _ZN15Bif_OPER2_INNERD2Ev
00000000000d16a0 T _ZN15Bif_OPER2_OUTER23PF_scalar_outer_productER14Thread_context
00000000004b7840 D _ZN15Bif_OPER2_OUTER3funE
00000000004b9940 B _ZN15Bif_OPER2_OUTER3jobE
00000000004b99a0 B _ZN15Bif_OPER2_OUTER4_funE
00000000000d1750 T _ZN15Bif_OPER2_OUTER9eval_ALRBE7Value_PR5TokenS2_S0_
00000000000d2b90 W _ZN15Bif_OPER2_OUTERD0Ev
00000000000d2b70 W _ZN15Bif_OPER2_OUTERD1Ev
00000000000d2b70 W _ZN15Bif_OPER2_OUTERD2Ev
00000000000cecb0 T _ZN15Bif_OPER2_POWER11eval_form_1E7Value_PR5TokenS0_S0_
00000000000ce2b0 T _ZN15Bif_OPER2_POWER11eval_form_2E7Value_PR5TokenS2_S0_
00000000004b7830 D _ZN15Bif_OPER2_POWER3funE
00000000004b9800 B _ZN15Bif_OPER2_POWER4_funE
00000000000cf8d0 T _ZN15Bif_OPER2_POWER8eval_LRBER5TokenS1_7Value_P
00000000000cf680 T _ZN15Bif_OPER2_POWER9eval_ALRBE7Value_PR5TokenS2_S0_
00000000000cfad0 W _ZN15Bif_OPER2_POWERD0Ev
00000000000cfac0 W _ZN15Bif_OPER2_POWERD1Ev
00000000000cfac0 W _ZN15Bif_OPER2_POWERD2Ev
000000000010b620 T _ZN15DerivedFunction6eval_BE7Value_P
000000000010ba40 T _ZN15DerivedFunction7eval_ABE7Value_PS0_
000000000010b880 T _ZN15DerivedFunction7eval_XBE7Value_PS0_
000000000010be60 T _ZN15DerivedFunction8eval_AXBE7Value_PS0_S0_
000000000010c4d0 W _ZN15DerivedFunction8locate_XEv
000000000010c330 T _ZN15DerivedFunctionC1EP8Function7Value_PPKc
000000000010c2a0 T _ZN15DerivedFunctionC1ER5TokenP8Function7Value_PPKc
000000000010c180 T _ZN15DerivedFunctionC1ER5TokenP8Function7Value_PS1_PKc
000000000010c230 T _ZN15DerivedFunctionC1ER5TokenP8FunctionPKc
000000000010c0f0 T _ZN15DerivedFunctionC1ER5TokenP8FunctionS1_PKc
000000000010c330 T _ZN15DerivedFunctionC2EP8Function7Value_PPKc
000000000010c2a0 T _ZN15DerivedFunctionC2ER5TokenP8Function7Value_PPKc
000000000010c180 T _ZN15DerivedFunctionC2ER5TokenP8Function7Value_PS1_PKc
000000000010c230 T _ZN15DerivedFunctionC2ER5TokenP8FunctionPKc
000000000010c0f0 T _ZN15DerivedFunctionC2ER5TokenP8FunctionS1_PKc
000000000010c5a0 W _ZN15DerivedFunctionD0Ev
000000000010c610 W _ZN15DerivedFunctionD1Ev
000000000010c610 W _ZN15DerivedFunctionD2Ev
00000000004c4720 B _ZN15LineEditContext10cut_bufferE
000000000011ff40 T _ZN15LineEditContext10cut_to_EOLEv
000000000011fe70 T _ZN15LineEditContext11cursor_DOWNEv
000000000011f790 T _ZN15LineEditContext11delete_charEv
000000000011f900 T _ZN15LineEditContext11insert_charE7Unicode
000000000011ed60 T _ZN15LineEditContext11refresh_allEv
000000000011fc30 T _ZN15LineEditContext13tab_expansionE13LineInputMode
000000000011f0f0 T _ZN15LineEditContext15toggle_ins_modeEv
000000000011ef70 T _ZN15LineEditContext19refresh_from_cursorEv
000000000011edd0 T _ZN15LineEditContext23adjust_allocated_heightEv
000000000011fb00 T _ZN15LineEditContext5pasteEv
000000000011fdd0 T _ZN15LineEditContext9cursor_UPEv
0000000000120010 T _ZN15LineEditContextC1E13LineInputModeiiR11LineHistoryRK10UCS_string
0000000000120010 T _ZN15LineEditContextC2E13LineInputModeiiR11LineHistoryRK10UCS_string
000000000011ec40 T _ZN15LineEditContextD1Ev
000000000011ec40 T _ZN15LineEditContextD2Ev
00000000001bbff0 W _ZN15MATCH_OR_MAKE_cD0Ev
00000000001bbfc0 W _ZN15MATCH_OR_MAKE_cD1Ev
00000000001bbfc0 W _ZN15MATCH_OR_MAKE_cD2Ev
0000000000166400 W _ZN15Network_ProfileD1Ev
0000000000166400 W _ZN15Network_ProfileD2Ev
00000000001bbc20 W _ZN15PRINT_SVAR_DB_cD0Ev
00000000001bbab0 W _ZN15PRINT_SVAR_DB_cD1Ev
00000000001bbab0 W _ZN15PRINT_SVAR_DB_cD2Ev
00000000001bbc30 W _ZN15READ_WSWS_VAR_cD0Ev
00000000001bbac0 W _ZN15READ_WSWS_VAR_cD1Ev
00000000001bbac0 W _ZN15READ_WSWS_VAR_cD2Ev
00000000001bbd70 W _ZN15RETRACT_OFFER_cD0Ev
00000000001bbc00 W _ZN15RETRACT_OFFER_cD1Ev
00000000001bbc00 W _ZN15RETRACT_OFFER_cD2Ev
00000000001c0ce0 W _ZN15Sig_item_stringC1ERPKh
00000000001c0ce0 W _ZN15Sig_item_stringC2ERPKh
00000000001bc0d0 W _ZN15SVAR_ASSIGNED_cD0Ev
00000000001bc0a0 W _ZN15SVAR_ASSIGNED_cD1Ev
00000000001bc0a0 W _ZN15SVAR_ASSIGNED_cD2Ev
0000000000203ed0 T _ZN15UserPreferences11expand_argvEiPPKc
00000000002018b0 T _ZN15UserPreferences12decode_ASCIIEPKc
00000000001fff50 T _ZN15UserPreferences12parse_argv_1Ev
00000000002041b0 T _ZN15UserPreferences12parse_argv_2Eb
0000000000200360 T _ZN15UserPreferences12show_versionERSo
00000000001ffeb0 T _ZN15UserPreferences13is_APL_scriptEPKc
0000000000201d90 T _ZN15UserPreferences13set_thresholdEP8Functioniil
00000000002015a0 T _ZN15UserPreferences14open_user_fileEPKcPcbb
0000000000202a10 T _ZN15UserPreferences16read_config_fileEbb
0000000000201dc0 T _ZN15UserPreferences19read_threshold_fileEbb
00000000002006e0 T _ZN15UserPreferences22show_configure_optionsEv
00000000001ffcf0 T _ZN15UserPreferences5usageEPKc
00000000001ffe90 T _ZN15UserPreferences8show_GPLERSo
0000000000206370 W _ZN15UserPreferencesD1Ev
0000000000206370 W _ZN15UserPreferencesD2Ev
00000000001bbe30 W _ZN15WSWS_VALUE_IS_cD0Ev
00000000001bbe00 W _ZN15WSWS_VALUE_IS_cD1Ev
00000000001bbe00 W _ZN15WSWS_VALUE_IS_cD2Ev
00000000004b9248 D _ZN16Bif_F12_INDEX_OF3funE
00000000004c53e0 B _ZN16Bif_F12_INDEX_OF4_funE
000000000013fe20 T _ZN16Bif_F12_INDEX_OF6eval_BE7Value_P
000000000013f2e0 T _ZN16Bif_F12_INDEX_OF7eval_ABE7Value_PS0_
000000000014ecc0 W _ZN16Bif_F12_INDEX_OFD0Ev
000000000014eb50 W _ZN16Bif_F12_INDEX_OFD1Ev
000000000014eb50 W _ZN16Bif_F12_INDEX_OFD2Ev
00000000004b7808 D _ZN16Bif_F12_SORT_ASC3funE
00000000004b9640 B _ZN16Bif_F12_SORT_ASC4_funE
00000000000c84c0 W _ZN16Bif_F12_SORT_ASC6eval_BE7Value_P
00000000000c8a80 W _ZN16Bif_F12_SORT_ASC7eval_ABE7Value_PS0_
00000000000c83a0 W _ZN16Bif_F12_SORT_ASCD0Ev
00000000000c8380 W _ZN16Bif_F12_SORT_ASCD1Ev
00000000000c8380 W _ZN16Bif_F12_SORT_ASCD2Ev
00000000004b7800 D _ZN16Bif_F12_SORT_DES3funE
00000000004b9600 B _ZN16Bif_F12_SORT_DES4_funE
00000000000c83e0 W _ZN16Bif_F12_SORT_DES6eval_BE7Value_P
00000000000c8970 W _ZN16Bif_F12_SORT_DES7eval_ABE7Value_PS0_
00000000000c8390 W _ZN16Bif_F12_SORT_DESD0Ev
00000000000c8370 W _ZN16Bif_F12_SORT_DESD1Ev
00000000000c8370 W _ZN16Bif_F12_SORT_DESD2Ev
00000000004b7860 D _ZN16Bif_OPER1_REDUCE3funE
00000000004b9ae0 B _ZN16Bif_OPER1_REDUCE4_funE
00000000000dacf0 W _ZN16Bif_OPER1_REDUCE7eval_ABE7Value_PS0_
00000000000d15d0 W _ZN16Bif_OPER1_REDUCE7eval_LBER5Token7Value_P
00000000000da9a0 W _ZN16Bif_OPER1_REDUCE8eval_ALBE7Value_PR5TokenS0_
00000000000da4a0 T _ZN16Bif_OPER1_REDUCE8eval_AXBE7Value_PS0_S0_
00000000000d7dd0 T _ZN16Bif_OPER1_REDUCE8eval_LXBER5Token7Value_PS2_
00000000000d9930 T _ZN16Bif_OPER1_REDUCE9eval_ALXBE7Value_PR5TokenS0_S0_
00000000000da740 W _ZN16Bif_OPER1_REDUCED0Ev
00000000000da720 W _ZN16Bif_OPER1_REDUCED1Ev
00000000000da720 W _ZN16Bif_OPER1_REDUCED2Ev
00000000001bbcc0 W _ZN16OFFERING_ID_IS_cD0Ev
00000000001bbb50 W _ZN16OFFERING_ID_IS_cD1Ev
00000000001bbb50 W _ZN16OFFERING_ID_IS_cD2Ev
00000000001bbc80 W _ZN16PAIRING_KEY_IS_cD0Ev
00000000001bbb10 W _ZN16PAIRING_KEY_IS_cD1Ev
00000000001bbb10 W _ZN16PAIRING_KEY_IS_cD2Ev
00000000001bc060 W _ZN16SVAR_RECORD_IS_cD0Ev
00000000001bc030 W _ZN16SVAR_RECORD_IS_cD1Ev
00000000001bc030 W _ZN16SVAR_RECORD_IS_cD2Ev
00000000001bbea0 W _ZN17ASSIGN_WSWS_VAR_cD0Ev
00000000001bbe70 W _ZN17ASSIGN_WSWS_VAR_cD1Ev
00000000001bbe70 W _ZN17ASSIGN_WSWS_VAR_cD2Ev
000000000014c770 T _ZN17Bif_F12_PARTITION10do_eval_XBE7Value_PS0_
00000000001488a0 T _ZN17Bif_F12_PARTITION12copy_segmentEP4CellR5Valuellllll7Value_P
000000000014bc10 T _ZN17Bif_F12_PARTITION17enclose_with_axesERK5Shape7Value_P
00000000004b92b0 D _ZN17Bif_F12_PARTITION3funE
00000000004c5720 B _ZN17Bif_F12_PARTITION4_funE
000000000014fe00 W _ZN17Bif_F12_PARTITION6eval_BE7Value_P
000000000014ff10 W _ZN17Bif_F12_PARTITION7eval_ABE7Value_PS0_
00000000001500d0 W _ZN17Bif_F12_PARTITION7eval_XBE7Value_PS0_
0000000000149440 T _ZN17Bif_F12_PARTITION8eval_AXBE7Value_PS0_S0_
00000000001486e0 T _ZN17Bif_F12_PARTITION9do_eval_BE7Value_P
0000000000148a80 T _ZN17Bif_F12_PARTITION9partitionE7Value_PS0_i
000000000014ec20 W _ZN17Bif_F12_PARTITIOND0Ev
000000000014eab0 W _ZN17Bif_F12_PARTITIOND1Ev
000000000014eab0 W _ZN17Bif_F12_PARTITIOND2Ev
0000000000147010 T _ZN17Bif_F12_TRANSPOSE14is_permutationERK5Shape
0000000000146b20 T _ZN17Bif_F12_TRANSPOSE14transpose_diagERK5Shape7Value_P
00000000001462d0 T _ZN17Bif_F12_TRANSPOSE19inverse_permutationERK5Shape
00000000004b9250 D _ZN17Bif_F12_TRANSPOSE3funE
00000000004c5420 B _ZN17Bif_F12_TRANSPOSE4_funE
0000000000146870 T _ZN17Bif_F12_TRANSPOSE6eval_BE7Value_P
00000000001470c0 T _ZN17Bif_F12_TRANSPOSE7eval_ABE7Value_PS0_
0000000000146440 T _ZN17Bif_F12_TRANSPOSE7permuteERK5ShapeS2_
0000000000146520 T _ZN17Bif_F12_TRANSPOSE9transposeERK5Shape7Value_P
000000000014ec60 W _ZN17Bif_F12_TRANSPOSED0Ev
000000000014eaf0 W _ZN17Bif_F12_TRANSPOSED1Ev
000000000014eaf0 W _ZN17Bif_F12_TRANSPOSED2Ev
00000000004b7820 D _ZN17Bif_OPER1_COMMUTE3funE
00000000004b9740 B _ZN17Bif_OPER1_COMMUTE4_funE
00000000000cb570 T _ZN17Bif_OPER1_COMMUTE7eval_LBER5Token7Value_P
00000000000cb8a0 T _ZN17Bif_OPER1_COMMUTE8eval_ALBE7Value_PR5TokenS0_
00000000000cb6a0 T _ZN17Bif_OPER1_COMMUTE8eval_LXBER5Token7Value_PS2_
00000000000cb9e0 T _ZN17Bif_OPER1_COMMUTE9eval_ALXBE7Value_PR5TokenS0_S0_
00000000000cbbd0 W _ZN17Bif_OPER1_COMMUTED0Ev
00000000000cbbc0 W _ZN17Bif_OPER1_COMMUTED1Ev
00000000000cbbc0 W _ZN17Bif_OPER1_COMMUTED2Ev
00000000004b7858 D _ZN17Bif_OPER1_REDUCE13funE
00000000004b9aa0 B _ZN17Bif_OPER1_REDUCE14_funE
00000000000dabe0 W _ZN17Bif_OPER1_REDUCE17eval_ABE7Value_PS0_
00000000000da7f0 W _ZN17Bif_OPER1_REDUCE17eval_LBER5Token7Value_P
00000000000da890 W _ZN17Bif_OPER1_REDUCE18eval_ALBE7Value_PR5TokenS0_
00000000000da750 W _ZN17Bif_OPER1_REDUCE18eval_ALBER5Token7Value_P
00000000000da5d0 T _ZN17Bif_OPER1_REDUCE18eval_AXBE7Value_PS0_S0_
00000000000d7ea0 T _ZN17Bif_OPER1_REDUCE18eval_LXBER5Token7Value_PS2_
00000000000d9a70 T _ZN17Bif_OPER1_REDUCE19eval_ALXBE7Value_PR5TokenS0_S0_
00000000000da730 W _ZN17Bif_OPER1_REDUCE1D0Ev
00000000000da710 W _ZN17Bif_OPER1_REDUCE1D1Ev
00000000000da710 W _ZN17Bif_OPER1_REDUCE1D2Ev
00000000001995f0 W _ZN17NL_SystemVariable10push_labelE13Function_Line
0000000000199610 W _ZN17NL_SystemVariable10push_valueE7Value_P
0000000000199600 W _ZN17NL_SystemVariable13push_functionEP8Function
0000000000199620 W _ZN17NL_SystemVariable3popEv
00000000001995e0 W _ZN17NL_SystemVariable4pushEv
000000000013d950 T _ZN17PrimitiveFunction11eval_fill_BE7Value_P
000000000013dac0 T _ZN17PrimitiveFunction12eval_fill_ABE7Value_PS0_
00000000004c5270 B _ZN17PrimitiveFunction8c_fillerE
00000000004c5250 B _ZN17PrimitiveFunction8n_fillerE
000000000014eb90 W _ZN17PrimitiveFunctionD0Ev
000000000014ea00 W _ZN17PrimitiveFunctionD1Ev
000000000014ea00 W _ZN17PrimitiveFunctionD2Ev
00000000001504c0 T _ZN17PrimitiveOperator4fillE5Shape7Value_PP8FunctionS1_PKc
00000000001a2590 W _ZN17RO_SystemVariable14assign_indexedE7Value_PS0_
00000000001a2580 W _ZN17RO_SystemVariable6assignE7Value_PbPKc
00000000001a2730 W _ZN17RO_SystemVariable7resolveER5Tokenb
00000000001a44f0 T _ZN17Statistics_record11save_recordERSo
00000000001a50e0 T _ZN17Statistics_record5printERSo
00000000001a4ea0 T _ZN17Statistics_record6print5ERSom
00000000001bbdc0 W _ZN17SVAR_DB_PRINTED_cD0Ev
00000000001bbd90 W _ZN17SVAR_DB_PRINTED_cD1Ev
00000000001bbd90 W _ZN17SVAR_DB_PRINTED_cD2Ev
000000000010f740 T _ZN17TrueIndexIteratorC1El7Value_Pjl
000000000010f740 T _ZN17TrueIndexIteratorC2El7Value_Pjl
000000000010fc80 W _ZN17TrueIndexIteratorD0Ev
000000000010fc50 W _ZN17TrueIndexIteratorD1Ev
000000000010fc50 W _ZN17TrueIndexIteratorD2Ev
00000000001f6b50 T _ZN17UCS_string_vector20compute_column_widthEiRSt6vectorIiSaIiEE
00000000001f6fa0 T _ZN17UCS_string_vectorC1ERK5Valueb
00000000001f6fa0 T _ZN17UCS_string_vectorC2ERK5Valueb
00000000001bbc60 W _ZN18CLEAR_ALL_EVENTS_cD0Ev
00000000001bbaf0 W _ZN18CLEAR_ALL_EVENTS_cD1Ev
00000000001bbaf0 W _ZN18CLEAR_ALL_EVENTS_cD2Ev
00000000001bbcd0 W _ZN18FIND_OFFERING_ID_cD0Ev
00000000001bbb60 W _ZN18FIND_OFFERING_ID_cD1Ev
00000000001bbb60 W _ZN18FIND_OFFERING_ID_cD2Ev
00000000001bbc90 W _ZN18FIND_PAIRING_KEY_cD0Ev
00000000001bbb20 W _ZN18FIND_PAIRING_KEY_cD1Ev
00000000001bbb20 W _ZN18FIND_PAIRING_KEY_cD2Ev
00000000001a55f0 T _ZN18FunctionStatistics5printERSo
00000000001a69f0 W _ZN18FunctionStatistics5resetEv
00000000001a46b0 T _ZN18FunctionStatistics9save_dataERSoPKc
00000000001a6b10 W _ZN18FunctionStatisticsD0Ev
00000000001a6af0 W _ZN18FunctionStatisticsD1Ev
00000000001a6af0 W _ZN18FunctionStatisticsD2Ev
00000000001bbca0 W _ZN18GET_OFFERED_VARS_cD0Ev
00000000001bbb30 W _ZN18GET_OFFERED_VARS_cD1Ev
00000000001bbb30 W _ZN18GET_OFFERED_VARS_cD2Ev
00000000001bbd00 W _ZN18IS_REGISTERED_ID_cD0Ev
00000000001bbb90 W _ZN18IS_REGISTERED_ID_cD1Ev
00000000001bbb90 W _ZN18IS_REGISTERED_ID_cD2Ev
000000000010f810 T _ZN18MultiIndexIteratorC1ERK5ShapeRK9IndexExpr
000000000010f810 T _ZN18MultiIndexIteratorC2ERK5ShapeRK9IndexExpr
000000000010fab0 T _ZN18MultiIndexIteratorD1Ev
000000000010fab0 T _ZN18MultiIndexIteratorD2Ev
000000000010fae0 T _ZN18MultiIndexIteratorppEi
00000000001bbf10 W _ZN18OFFERED_VARS_ARE_cD0Ev
00000000001bbee0 W _ZN18OFFERED_VARS_ARE_cD1Ev
00000000001bbee0 W _ZN18OFFERED_VARS_ARE_cD2Ev
00000000001bbd10 W _ZN18READ_SVAR_RECORD_cD0Ev
00000000001bbba0 W _ZN18READ_SVAR_RECORD_cD1Ev
00000000001bbba0 W _ZN18READ_SVAR_RECORD_cD2Ev
00000000000b0280 T _ZN18XML_Saving_Archive10save_RavelENS_3VidE
00000000000aeb70 T _ZN18XML_Saving_Archive10save_shapeENS_3VidE
00000000000b14b0 T _ZN18XML_Saving_Archive11save_ParserERK6Prefix
00000000000b0630 T _ZN18XML_Saving_Archive11save_SymbolERK6Symbol
00000000000b0940 T _ZN18XML_Saving_Archive11save_symtabERK11SymbolTable
00000000000ae5f0 T _ZN18XML_Saving_Archive11xml_allowedE7Unicode
00000000000ae6f0 T _ZN18XML_Saving_Archive12emit_unicodeE7UnicodeRi
00000000000aeed0 T _ZN18XML_Saving_Archive13save_FunctionERK8Function
00000000000b16b0 T _ZN18XML_Saving_Archive13save_SI_entryERK14StateIndicator
00000000000b0d20 T _ZN18XML_Saving_Archive14emit_token_valERK5Token
00000000000b1280 T _ZN18XML_Saving_Archive14save_token_locERK9Token_loc
00000000000b0470 T _ZN18XML_Saving_Archive16save_vstack_itemERK14ValueStackItem
00000000000af1a0 T _ZN18XML_Saving_Archive18save_Function_nameEPKcS1_S1_RK8Function
00000000000af6c0 T _ZN18XML_Saving_Archive18save_user_commandsERKSt6vectorIN7Command12user_commandESaIS2_EE
00000000000ae660 T _ZN18XML_Saving_Archive4decrERiPKc
00000000000b1da0 T _ZN18XML_Saving_Archive4saveEv
00000000000afa40 T _ZN18XML_Saving_Archive8find_vidEPK5Value
00000000000ae9b0 T _ZN18XML_Saving_Archive8save_UCSERK10UCS_string
00000000000afa20 T _ZN18XML_Saving_Archive8_val_par15compare_val_parERKS0_S2_PKv
00000000000afa30 T _ZN18XML_Saving_Archive8_val_par16compare_val_par1EPKvS2_
00000000000ae690 T _ZN18XML_Saving_Archive9do_indentEv
00000000000afaf0 T _ZN18XML_Saving_Archive9emit_cellERK4CellRi
000000000010fc40 W _ZN19ElidedIndexIteratorD0Ev
000000000010fb80 W _ZN19ElidedIndexIteratorD1Ev
000000000010fb80 W _ZN19ElidedIndexIteratorD2Ev
000000000018cbf0 T _ZN19string_width_heightC1EPKcP16xcb_connection_tj
000000000018cbf0 T _ZN19string_width_heightC2EPKcP16xcb_connection_tj
00000000001fefd0 T _ZN19UserFunction_header11eval_commonEv
00000000001fe1f0 T _ZN19UserFunction_header13add_local_varEP6Symbol
00000000001fe730 T _ZN19UserFunction_header13lambda_headerE13Fun_signaturei
00000000001fe580 T _ZN19UserFunction_header18reverse_local_varsEv
00000000001fe5d0 T _ZN19UserFunction_header26remove_duplicate_local_varEPK6Symbolm
00000000001fe630 T _ZN19UserFunction_header32remove_duplicate_local_variablesEv
00000000001ff070 T _ZN19UserFunction_headerC1E13Fun_signaturei
00000000001ff2c0 T _ZN19UserFunction_headerC1ERK10UCS_stringb
00000000001ff070 T _ZN19UserFunction_headerC2E13Fun_signaturei
00000000001ff2c0 T _ZN19UserFunction_headerC2ERK10UCS_stringb
0000000000126c60 W _ZN19UserFunction_headerD1Ev
0000000000126c60 W _ZN19UserFunction_headerD2Ev
00000000000b5dd0 T _ZN19XML_Loading_Archive10read_CellsERP4CellR5ValueRPKh
00000000000b5bd0 T _ZN19XML_Loading_Archive10read_charsER10UCS_stringRPKh
00000000000b4190 T _ZN19XML_Loading_Archive10read_LabelEiR6Symbol
00000000000b65e0 T _ZN19XML_Loading_Archive10read_RavelEv
00000000000b52e0 T _ZN19XML_Loading_Archive10read_TokenER9Token_loc
00000000000b8e80 T _ZN19XML_Loading_Archive10read_ValueEv
00000000000b43d0 T _ZN19XML_Loading_Archive11find_lambdaERK10UCS_string
00000000000b6b60 T _ZN19XML_Loading_Archive11read_lambdaEPKh
00000000000b59e0 T _ZN19XML_Loading_Archive11read_ParserER14StateIndicatori
00000000000b7a70 T _ZN19XML_Loading_Archive11read_SymbolEv
00000000000b3df0 T _ZN19XML_Loading_Archive11skip_to_tagEPKc
00000000000b4840 T _ZN19XML_Loading_Archive12read_CommandEv
00000000000b6810 T _ZN19XML_Loading_Archive12read_ExecuteEv
00000000000b3890 T _ZN19XML_Loading_Archive13find_int_attrEPKcbi
00000000000b4da0 T _ZN19XML_Loading_Archive13read_CommandsEv
00000000000b7470 T _ZN19XML_Loading_Archive13read_FunctionEiR6Symbol
00000000000b7110 T _ZN19XML_Loading_Archive13read_SI_entryEi
00000000000b3e60 T _ZN19XML_Loading_Archive13read_VariableEiR6Symbol
00000000000b6960 T _ZN19XML_Loading_Archive14read_StatementEv
00000000000b9250 T _ZN19XML_Loading_Archive14read_WorkspaceEb
00000000000b38c0 T _ZN19XML_Loading_Archive15find_float_attrEPKc
00000000000b8df0 T _ZN19XML_Loading_Archive16read_SymbolTableEv
00000000000b3e40 T _ZN19XML_Loading_Archive16read_unused_nameEiR6Symbol
00000000000b6d30 T _ZN19XML_Loading_Archive17read_UserFunctionEv
00000000000b4e30 T _ZN19XML_Loading_Archive18read_Function_nameEPKcS1_S1_
00000000000b7360 T _ZN19XML_Loading_Archive19read_StateIndicatorEv
00000000000b41e0 T _ZN19XML_Loading_Archive20read_Shared_VariableEiR6Symbol
00000000000b39b0 T _ZN19XML_Loading_Archive5resetEv
00000000000b3260 T _ZN19XML_Loading_Archive5whereERSo
00000000000b3520 T _ZN19XML_Loading_Archive7get_uniEv
00000000000b38e0 T _ZN19XML_Loading_Archive8next_tagEPKc
00000000000b6ab0 T _ZN19XML_Loading_Archive8read_UCSEv
00000000000b3730 T _ZN19XML_Loading_Archive9find_attrEPKcb
00000000000b9f50 T _ZN19XML_Loading_Archive9read_vidsEv
00000000000b33c0 T _ZN19XML_Loading_Archive9where_attERSo
00000000000b39d0 T _ZN19XML_Loading_ArchiveC1EPKcRi
00000000000b39d0 T _ZN19XML_Loading_ArchiveC2EPKcRi
00000000000b3140 T _ZN19XML_Loading_ArchiveD1Ev
00000000000b3140 T _ZN19XML_Loading_ArchiveD2Ev
000000000010c480 T _ZN20DerivedFunctionCache3getEPKc
000000000010c470 T _ZN20DerivedFunctionCache5resetEv
000000000010c3b0 T _ZN20DerivedFunctionCacheC1Ev
000000000010c3b0 T _ZN20DerivedFunctionCacheC2Ev
000000000010c430 T _ZN20DerivedFunctionCacheD1Ev
000000000010c430 T _ZN20DerivedFunctionCacheD2Ev
00000000001bbcb0 W _ZN20GET_OFFERING_PROCS_cD0Ev
00000000001bbb40 W _ZN20GET_OFFERING_PROCS_cD1Ev
00000000001bbb40 W _ZN20GET_OFFERING_PROCS_cD2Ev
00000000001bbf80 W _ZN20OFFERING_PROCS_ARE_cD0Ev
00000000001bbf50 W _ZN20OFFERING_PROCS_ARE_cD1Ev
00000000001bbf50 W _ZN20OFFERING_PROCS_ARE_cD2Ev
0000000000166480 W _ZN20REGISTER_PROCESSOR_cD0Ev
00000000001663d0 W _ZN20REGISTER_PROCESSOR_cD1Ev
00000000001663d0 W _ZN20REGISTER_PROCESSOR_cD2Ev
00000000001a5280 T _ZN22CellFunctionStatistics5printERSo
00000000001a6a40 W _ZN22CellFunctionStatistics5resetEv
00000000001a4820 T _ZN22CellFunctionStatistics9save_dataERSoPKc
00000000001a6ac0 W _ZN22CellFunctionStatisticsD0Ev
00000000001a6aa0 W _ZN22CellFunctionStatisticsD1Ev
00000000001a6aa0 W _ZN22CellFunctionStatisticsD2Ev
00000000001bbce0 W _ZN22MATCH_OR_MAKE_RESULT_cD0Ev
00000000001bbb70 W _ZN22MATCH_OR_MAKE_RESULT_cD1Ev
00000000001bbb70 W _ZN22MATCH_OR_MAKE_RESULT_cD2Ev
00000000004c64c8 B _ZN22Parallel_job_list_base11started_locE
000000000018b270 T _ZN22Plot_window_properties12round_up_125Ed
000000000018a7b0 T _ZN22Plot_window_properties13set_attributeEPKc
000000000018c460 T _ZN22Plot_window_properties15set_window_sizeEii
000000000018b470 T _ZN22Plot_window_properties6updateEi
000000000018c480 T _ZN22Plot_window_propertiesC1EPK9Plot_datai
000000000018c480 T _ZN22Plot_window_propertiesC2EPK9Plot_datai
000000000010d720 T _ZN2ID12get_name_UCSE2Id
000000000010e6a0 T _ZN2ID13get_token_tagE2Id
000000000010d970 T _ZN2ID19get_system_functionE2Id
000000000010e3a0 T _ZN2ID19get_system_variableE2Id
000000000010c670 T _ZN2ID7cleanupEv
000000000010c680 T _ZN2ID8get_nameE2Id
00000000000ddcd0 T _ZN3CDR4fillER10CDR_stringiiRK5Value
00000000000de9a0 T _ZN3CDR6to_CDRER10CDR_stringRK5Value
00000000000dd150 T _ZN3CDR8from_CDRERK10CDR_stringPKc
000000000021f290 W _ZN3CHID0Ev
000000000021ee10 W _ZN3CHID1Ev
000000000021ee10 W _ZN3CHID2Ev
00000000000bb7c0 T _ZN4Avec10get_av_posE9CHT_Index
00000000000bc950 T _ZN4Avec11compare_uniEPKvS1_
00000000000bb840 T _ZN4Avec11find_av_posE7Unicode
00000000000bc600 T _ZN4Avec11IBM_quad_AVEv
00000000000bc5e0 T _ZN4Avec11superscriptEj
00000000000bbef0 T _ZN4Avec12uni_to_tokenER7UnicodePKc
00000000000bbf80 T _ZN4Avec13is_known_charE7Unicode
00000000000bc960 T _ZN4Avec13unicode_to_cpE7Unicode
00000000000bb880 T _ZN4Avec14check_av_tableEv
00000000004b6fe0 D _ZN4Avec14inverse_ibm_avE
00000000000bc510 T _ZN4Avec14is_symbol_charE7Unicode
00000000000bc560 T _ZN4Avec14no_space_afterE7Unicode
00000000000bb660 T _ZN4Avec14show_error_posEiibi
00000000000bc590 T _ZN4Avec15no_space_beforeE7Unicode
00000000000bc540 T _ZN4Avec20is_first_symbol_charE7Unicode
00000000000bbd20 T _ZN4Avec20map_alternative_charE7Unicode
00000000000bc610 T _ZN4Avec25print_inverse_IBM_quad_AVEv
00000000000bbd10 T _ZN4Avec4initEv
00000000000bb790 T _ZN4Avec7unicodeE9CHT_Index
00000000000bca50 T _ZN4Avec8need_UCSE7Unicode
00000000000bb7f0 T _ZN4Avec9find_charE7Unicode
00000000000bc5c0 T _ZN4Avec9subscriptEj
00000000000e0450 W _ZN4Cell10vFloatCellEv
00000000000df490 T _ZN4Cell11compare_ptrERKPKS_S3_PKv
00000000000df660 T _ZN4Cell11greater_vecERK7IntCellS2_PKv
00000000000df4a0 T _ZN4Cell11is_near_intEd
00000000000df820 T _ZN4Cell11smaller_vecERK7IntCellS2_PKv
00000000000e04b0 W _ZN4Cell12cComplexCellEv
00000000000e03b0 W _ZN4Cell12vPointerCellEv
00000000000df440 T _ZN4Cell14compare_stableERKPKS_S3_PKv
00000000000dec90 T _ZN4Cell15init_from_valueEP5ValueRS0_PKc
00000000000df510 T _ZN4Cell15is_near_int64_tEd
00000000000df3b0 T _ZN4Cell4copyER5ValueRPKS_l
00000000000dfee0 W _ZN4Cell7releaseEPKc
00000000000e0550 W _ZN4Cell7to_typeEv
00000000000df580 T _ZN4Cell8near_intEd
00000000000e0410 W _ZN4Cell8vIntCellEv
00000000000df070 T _ZN4Cell9init_typeERKS_R5ValuePKc
00000000000e04d0 W _ZN4Cell9vCharCellEv
00000000000e03f0 W _ZN4Cell9vLvalCellEv
00000000000dec80 T _ZN4CellnwEmPv
00000000000e3860 T _ZN4Doxy10fun_anchorERK10UCS_string
00000000000e4390 T _ZN4Doxy13function_pageEPK12UserFunctionRK10UCS_string
00000000000e53b0 T _ZN4Doxy15functions_tableERKSt6vectorIPK6SymbolSaIS3_EERSt14basic_ofstreamIcSt11char_traitsIcEE
00000000000e1b80 T _ZN4Doxy15make_call_graphERKSt6vectorIPK6SymbolSaIS3_EE
00000000000e09b0 T _ZN4Doxy15variables_tableERKSt6vectorIPK6SymbolSaIS3_EERSt14basic_ofstreamIcSt11char_traitsIcEE
00000000000e2990 T _ZN4Doxy16write_call_graphEPK12UserFunctionRK10UCS_stringb
00000000000e14b0 T _ZN4Doxy17swap_caller_caleeEv
00000000000e3ea0 T _ZN4Doxy19set_call_graph_rootEPK12UserFunction
00000000000e17a0 T _ZN4Doxy21add_fun_to_call_graphEPK6SymbolPK12UserFunction
00000000000e5e00 T _ZN4Doxy3genEv
00000000000e1460 T _ZN4Doxy7node_IDEPK12UserFunction
00000000000e1fe0 T _ZN4Doxy8SI_tableERSt14basic_ofstreamIcSt11char_traitsIcEE
00000000000e1510 T _ZN4Doxy9gv_to_pngEPKcS1_b
00000000000e1ca0 T _ZN4Doxy9write_cssEv
00000000000e39e0 T _ZN4DoxyC1ERSoRK10UCS_string
00000000000e39e0 T _ZN4DoxyC2ERSoRK10UCS_string
00000000000fc020 W _ZN4DoxyD1Ev
00000000000fc020 W _ZN4DoxyD2Ev
000000000021f4d0 W _ZN5ALPHAD0Ev
000000000021ed50 W _ZN5ALPHAD1Ev
000000000021ed50 W _ZN5ALPHAD2Ev
0000000000102340 T _ZN5Error10error_nameE9ErrorCode
0000000000102ba0 T _ZN5Error16set_error_line_2ERK10UCS_stringii
0000000000102c40 T _ZN5Error17throw_parse_errorE9ErrorCodePKcS2_
0000000000103690 T _ZN5Error17update_error_infoEP14StateIndicator
0000000000102d70 T _ZN5Error18throw_define_errorERK10UCS_stringS2_PKc
0000000000103c10 T _ZN5Error18throw_symbol_errorERK10UCS_stringPKc
0000000000103230 T _ZN5Error8print_emERSoPKc
00000000001028a0 T _ZN5ErrorC1E9ErrorCodePKc
00000000001028a0 T _ZN5ErrorC2E9ErrorCodePKc
00000000004c4820 B _ZN5Macro10all_macrosE
00000000004ca060 B _ZN5Macro12LO_POWER_N_BE
00000000004caca0 B _ZN5Macro12Z__LO_EACH_BE
00000000004cb1e0 B _ZN5Macro13sA_LO_EACH_vBE
00000000004cb020 B _ZN5Macro13vA_LO_EACH_sBE
00000000004cae60 B _ZN5Macro13vA_LO_EACH_vBE
00000000004c8b60 B _ZN5Macro13Z__Quad_INP_BE
00000000004c9ea0 B _ZN5Macro14A_LO_POWER_N_BE
00000000004c89a0 B _ZN5Macro14Z__A_Quad_EA_BE
00000000004c87e0 B _ZN5Macro14Z__A_Quad_EB_BE
00000000004c8460 B _ZN5Macro14Z__EXEC_EACH_BE
00000000004ca3e0 B _ZN5Macro15Z__A_LO_OUTER_BE
00000000004c9ce0 B _ZN5Macro15Z__LO_POWER_N_BE
00000000004c8ee0 B _ZN5Macro15Z__LO_RANK_X5_BE
00000000004c90a0 B _ZN5Macro15Z__LO_SCAN_X4_BE
00000000004c9960 B _ZN5Macro16Z__LO_POWER_RO_BE
00000000004caae0 B _ZN5Macro16Z__sA_LO_EACH_sBE
00000000004ca920 B _ZN5Macro16Z__sA_LO_EACH_vBE
00000000004ca760 B _ZN5Macro16Z__vA_LO_EACH_sBE
00000000004ca5a0 B _ZN5Macro16Z__vA_LO_EACH_vBE
0000000000128260 T _ZN5Macro17unmark_all_macrosEv
00000000004c9b20 B _ZN5Macro17Z__A_LO_POWER_N_BE
00000000004c8d20 B _ZN5Macro17Z__A_LO_RANK_X7_BE
00000000004c95e0 B _ZN5Macro17Z__LO_REDUCE_X4_BE
00000000004ca220 B _ZN5Macro18Z__A_LO_INNER_RO_BE
00000000004c97a0 B _ZN5Macro18Z__A_LO_POWER_RO_BE
00000000004c9260 B _ZN5Macro20Z__nA_LO_REDUCE_X4_BE
00000000004c9420 B _ZN5Macro20Z__pA_LO_REDUCE_X4_BE
00000000004c8620 B _ZN5Macro20Z__vA_LO_INNER_RO_vBE
0000000000128200 T _ZN5Macro9get_macroENS_9Macro_numE
00000000004cb3a0 B _ZN5Macro9LO_EACH_BE
0000000000127af0 T _ZN5MacroC1ENS_9Macro_numEPKc
0000000000127af0 T _ZN5MacroC2ENS_9Macro_numEPKc
0000000000127ac0 T _ZN5MacroD0Ev
0000000000127a90 T _ZN5MacroD1Ev
0000000000127a90 T _ZN5MacroD2Ev
0000000000123330 T _ZN5Nabla10parse_operER10UCS_stringb
0000000000124c50 T _ZN5Nabla12execute_editEv
0000000000125250 T _ZN5Nabla12execute_operEv
0000000000122fd0 T _ZN5Nabla12execute_showEv
0000000000122820 T _ZN5Nabla12parse_linenoERN10UCS_string8iteratorE
00000000001268e0 T _ZN5Nabla13edit_functionERK10UCS_string
00000000001247b0 T _ZN5Nabla14edit_body_lineEv
0000000000124ce0 T _ZN5Nabla14execute_deleteEv
0000000000125050 T _ZN5Nabla14execute_escapeEv
00000000001243d0 T _ZN5Nabla16edit_header_lineEv
00000000001223d0 T _ZN5Nabla16throw_edit_errorEPKc
0000000000124ee0 T _ZN5Nabla17open_new_functionEv
0000000000123dd0 T _ZN5Nabla22open_existing_functionEv
0000000000125c80 T _ZN5Nabla4editEv
0000000000125450 T _ZN5Nabla5startEv
0000000000126cb0 W _ZN5Nabla7FunLineD1Ev
0000000000126cb0 W _ZN5Nabla7FunLineD2Ev
00000000001221b0 T _ZN5NablaC1ERK10UCS_string
00000000001221b0 T _ZN5NablaC2ERK10UCS_string
0000000000126ad0 W _ZN5NablaD1Ev
0000000000126ad0 W _ZN5NablaD2Ev
000000000021f350 W _ZN5OMEGAD0Ev
000000000021f050 W _ZN5OMEGAD1Ev
000000000021f050 W _ZN5OMEGAD2Ev
0000000000499fe0 D _ZN5Probe2P0E
0000000000499fd8 D _ZN5Probe3P_1E
0000000000499fd0 D _ZN5Probe3P_2E
0000000000499fc8 D _ZN5Probe3P_3E
0000000000499fc0 D _ZN5Probe3P_4E
0000000000499fb8 D _ZN5Probe3P_5E
00000000004c2240 B _ZN5Probe5dummyE
00000000004b9be0 B _ZN5Probe6probesE
00000000001a7880 T _ZN5Shape6expandERKS_
00000000001a76e0 T _ZN5ShapeC1EPK5Valuei
00000000001a76e0 T _ZN5ShapeC2EPK5Valuei
00000000001e7f80 T _ZN5Token10class_nameE10TokenClass
00000000001e59c0 T _ZN5Token15extract_apl_valEPKc
00000000001e5a10 T _ZN5Token16extract_and_keepEPKc
00000000001e7d80 T _ZN5Token16short_class_nameE10TokenClass
00000000001e8180 T _ZN5Token6copy_1ERKS_PKc
00000000001e8330 T _ZN5Token6move_1ERS_PKc
00000000001e8510 T _ZN5Token6move_2ERKS_PKc
00000000001e5960 T _ZN5Token9ChangeTagE8TokenTag
000000000014f810 W _ZN5TokenC1E8TokenTag7Value_P
00000000001e5300 T _ZN5TokenC1E8TokenTagR9IndexExpr
00000000001e8310 T _ZN5TokenC1ERKS_
000000000014f810 W _ZN5TokenC2E8TokenTag7Value_P
00000000001e5300 T _ZN5TokenC2E8TokenTagR9IndexExpr
00000000001e8310 T _ZN5TokenC2ERKS_
00000000004c83b0 B _ZN5Value10alloc_sizeE
000000000020c630 T _ZN5Value10toggle_UCSEv
00000000002096e0 T _ZN5Value11catch_ErrorERK5ErrorPKcS4_
000000000020d290 T _ZN5Value11check_valueEPKc
00000000002116f0 T _ZN5Value11erase_staleEPKc
00000000002130d0 T _ZN5Value11print_staleERSo
000000000014f4d0 W _ZN5Value11set_defaultERKS_PKc
00000000004c83e0 B _ZN5Value11value_countE
000000000020d590 T _ZN5Value12get_cellrefsEPKc
0000000000209640 T _ZN5Value13check_WS_FULLEPKclS1_
00000000004c83d0 B _ZN5Value14deleted_valuesE
000000000020b970 T _ZN5Value14is_or_containsEPKS_RS0_
00000000001643f0 W _ZN5Value14next_ravel_IntEl
000000000020b7d0 T _ZN5Value15assign_cellrefsE7Value_P
00000000002097f0 T _ZN5Value15catch_exceptionERKSt9exceptionPKcS4_S4_
000000000020d0b0 T _ZN5Value15get_single_axisEPKS_i
0000000000212df0 T _ZN5Value16print_incompleteERSo
0000000000211a90 T _ZN5Value17finish_incompleteEPKc
00000000004c83d8 B _ZN5Value17total_ravel_countE
000000000020e6e0 T _ZN5Value18glue_closed_closedER5Token7Value_PS2_PKc
000000000020e2e0 T _ZN5Value18glue_closed_strandER5Token7Value_PS2_PKc
000000000020ded0 T _ZN5Value18glue_strand_closedER5Token7Value_PS2_PKc
000000000020db20 T _ZN5Value18glue_strand_strandER5Token7Value_PS2_PKc
0000000000164440 W _ZN5Value18next_ravel_PointerEPS_
00000000004c83c8 B _ZN5Value20deleted_values_countE
000000000020bf20 T _ZN5Value23mark_all_dynamic_valuesEv
000000000020eb50 T _ZN5Value4glueER5TokenS1_S1_PKc
000000000020bf10 T _ZN5Value4initEv
00000000004c83c0 B _ZN5Value8fast_newE
000000000020fcb0 T _ZN5Value8list_allERSob
000000000020c050 T _ZN5Value8rollbackElPKc
00000000004c83b8 B _ZN5Value8slow_newE
00000000002106e0 T _ZN5Value8to_protoEv
000000000020d190 T _ZN5Value8to_shapeEPKS_
0000000000209e10 T _ZN5Value9catch_ANYEPKcS1_S1_
000000000020fae0 T _ZN5Value9erase_allERSo
000000000020a100 T _ZN5ValueC1ElPKc
0000000000209e60 T _ZN5ValueC1EPKc
000000000020b350 T _ZN5ValueC1EPKcPK5Shape
000000000020ac50 T _ZN5ValueC1ERK10CDR_stringPKc
000000000020a610 T _ZN5ValueC1ERK10UCS_stringPKc
000000000020af80 T _ZN5ValueC1ERK11PrintBufferPKc
000000000020a930 T _ZN5ValueC1ERK11UTF8_stringPKc
000000000020d2a0 T _ZN5ValueC1ERK4CellPKc
000000000020a380 T _ZN5ValueC1ERK5ShapePKc
000000000020a100 T _ZN5ValueC2ElPKc
0000000000209e60 T _ZN5ValueC2EPKc
000000000020b350 T _ZN5ValueC2EPKcPK5Shape
000000000020ac50 T _ZN5ValueC2ERK10CDR_stringPKc
000000000020a610 T _ZN5ValueC2ERK10UCS_stringPKc
000000000020af80 T _ZN5ValueC2ERK11PrintBufferPKc
000000000020a930 T _ZN5ValueC2ERK11UTF8_stringPKc
000000000020d2a0 T _ZN5ValueC2ERK4CellPKc
000000000020a380 T _ZN5ValueC2ERK5ShapePKc
0000000000209600 T _ZN5ValueD0Ev
00000000002094b0 T _ZN5ValueD1Ev
00000000002094b0 T _ZN5ValueD2Ev
00000000000c4f80 W _ZN5ValuedlEPv
000000000012edf0 T _ZN6CinOut8overflowEi
000000000012f340 W _ZN6CinOutD0Ev
000000000012f2b0 W _ZN6CinOutD1Ev
000000000012f2b0 W _ZN6CinOutD2Ev
00000000004c5118 B _ZN6ErrOut4usedE
000000000012ee60 T _ZN6ErrOut8overflowEi
000000000012f390 W _ZN6ErrOutD0Ev
000000000012f2f0 W _ZN6ErrOutD1Ev
000000000012f2f0 W _ZN6ErrOutD2Ev
00000000004b84a0 D _ZN6ESCmap10the_ESCmapE
000000000011e460 T _ZN6ESCmap15refresh_lengthsEv
000000000011e3b0 T _ZN6ESCmap9need_moreEPKci
000000000021f110 W _ZN6LAMBDAD0Ev
000000000021eed0 W _ZN6LAMBDAD1Ev
000000000021eed0 W _ZN6LAMBDAD2Ev
00000000004b90a0 D _ZN6Output10color_CERRE
00000000004b9120 D _ZN6Output10color_COUTE
00000000004c4940 B _ZN6Output10color_modeE
00000000004b9020 D _ZN6Output10color_UERRE
00000000004b8a20 D _ZN6Output10ESC_DeleteE
000000000012e820 T _ZN6Output10reset_doutEv
00000000004c5223 B _ZN6Output10use_cursesE
00000000004b8fa0 D _ZN6Output11color_RESETE
00000000004c5222 B _ZN6Output11keys_cursesE
00000000004b8da0 D _ZN6Output12ESC_CursorUpE
00000000004b8620 D _ZN6Output12ESC_Delete_1E
000000000012e840 T _ZN6Output12reset_colorsEv
000000000012eec0 T _ZN6Output12toggle_colorERK10UCS_string
000000000012ef10 T _ZN6Output13color_enabledEv
00000000004b8ba0 D _ZN6Output13ESC_CursorEndE
00000000004c5220 B _ZN6Output14colors_changedE
00000000004c5221 B _ZN6Output14colors_enabledE
00000000004b8d20 D _ZN6Output14ESC_CursorDownE
00000000004b8b20 D _ZN6Output14ESC_CursorHomeE
00000000004b8c20 D _ZN6Output14ESC_CursorLeftE
00000000004b89a0 D _ZN6Output14ESC_CursorUp_1E
00000000004b8aa0 D _ZN6Output14ESC_InsertModeE
00000000004b8e20 D _ZN6Output14exit_attr_modeE
000000000012eae0 T _ZN6Output14set_color_modeENS_9ColorModeE
00000000004b87a0 D _ZN6Output15ESC_CursorEnd_1E
00000000004b8ca0 D _ZN6Output15ESC_CursorRightE
00000000004b8920 D _ZN6Output16ESC_CursorDown_1E
00000000004b8720 D _ZN6Output16ESC_CursorHome_1E
00000000004b8820 D _ZN6Output16ESC_CursorLeft_1E
00000000004b86a0 D _ZN6Output16ESC_InsertMode_1E
00000000004b88a0 D _ZN6Output17ESC_CursorRight_1E
000000000012dee0 T _ZN6Output17read_ESC_sequenceEPciiPKcS0_i
00000000004b9218 D _ZN6Output20color_CIN_backgroundE
00000000004c521c B _ZN6Output20color_CIN_foregroundE
00000000004b920c D _ZN6Output21color_CERR_backgroundE
00000000004b9210 D _ZN6Output21color_CERR_foregroundE
00000000004b9214 D _ZN6Output21color_COUT_backgroundE
00000000004c5218 B _ZN6Output21color_COUT_foregroundE
00000000004b9204 D _ZN6Output21color_UERR_backgroundE
00000000004b9208 D _ZN6Output21color_UERR_foregroundE
000000000012e1e0 T _ZN6Output4initEb
00000000004b8f20 D _ZN6Output9clear_EOLE
00000000004b8ea0 D _ZN6Output9clear_EOSE
00000000004b91a0 D _ZN6Output9color_CINE
0000000000131040 T _ZN6Parser10mark_lsymbER12Token_string
0000000000130c10 T _ZN6Parser12create_valueER12Token_stringii
0000000000131220 T _ZN6Parser13match_par_braER12Token_stringb
000000000012fc20 T _ZN6Parser14check_if_valueERK12Token_stringi
0000000000130dd0 T _ZN6Parser14collect_groupsER12Token_string
00000000001315c0 T _ZN6Parser15parse_statementER12Token_string
0000000000130c40 T _ZN6Parser17collect_constantsER12Token_string
00000000001314a0 T _ZN6Parser17remove_void_tokenER12Token_string
000000000012fcd0 T _ZN6Parser19create_scalar_valueER5Token
0000000000130710 T _ZN6Parser19create_vector_valueER12Token_stringii
000000000012f580 T _ZN6Parser19find_closing_parentERK12Token_stringi
000000000012f5f0 T _ZN6Parser19find_opening_parentERK12Token_stringi
000000000012f440 T _ZN6Parser20find_closing_bracketERK12Token_stringi
000000000012f4e0 T _ZN6Parser20find_opening_bracketERK12Token_stringi
000000000012f960 T _ZN6Parser25replace_bitwise_functionsER12Token_string
000000000012f690 T _ZN6Parser30remove_nongrouping_paranthesesER12Token_string
000000000049bb60 D _ZN6Prefix10hash_tableE
0000000000132150 T _ZN6Prefix10reduce____Ev
000000000013ade0 T _ZN6Prefix10replace_ABE7Value_PS0_
000000000013ba70 W _ZN6Prefix10set_actionERK5Token
0000000000138060 T _ZN6Prefix11reduce_N___Ev
00000000001324a0 T _ZN6Prefix12reduce_A_B__Ev
0000000000135140 T _ZN6Prefix12reduce_A_C__Ev
0000000000132600 T _ZN6Prefix12reduce_F_M__Ev
00000000001322f0 T _ZN6Prefix12reduce_F_V__Ev
00000000001378e0 T _ZN6Prefix12reduce_M_M__Ev
0000000000132220 T _ZN6Prefix12reduce_V_C__Ev
0000000000136060 T _ZN6Prefix12syntax_errorEPKc
00000000001382a0 T _ZN6Prefix13reduce_A_F_B_Ev
0000000000138620 T _ZN6Prefix13reduce_A_M_B_Ev
00000000001331c0 T _ZN6Prefix13reduce_F_C_M_Ev
0000000000134360 T _ZN6Prefix13reduce_F_D_B_Ev
00000000001328b0 T _ZN6Prefix13reduce_F_D_G_Ev
00000000001361b0 T _ZN6Prefix13reduce_F_D_M_Ev
0000000000132ae0 T _ZN6Prefix13reduce_F_M_C_Ev
00000000001379c0 T _ZN6Prefix13reduce_M_C_M_Ev
0000000000136200 T _ZN6Prefix13reduce_M_D_G_Ev
0000000000136250 T _ZN6Prefix13reduce_M_D_M_Ev
0000000000137950 T _ZN6Prefix13reduce_M_M_C_Ev
0000000000138670 T _ZN6Prefix14reduce_A_F_C_BEv
0000000000138b30 T _ZN6Prefix14reduce_A_M_C_BEv
0000000000136420 T _ZN6Prefix14reduce_END_B__Ev
0000000000133470 T _ZN6Prefix14reduce_F_C_M_CEv
00000000001337f0 T _ZN6Prefix14reduce_F_D_C_BEv
0000000000137a30 T _ZN6Prefix14reduce_M_C_M_CEv
0000000000132180 T _ZN6Prefix14reduce_RBRA___Ev
0000000000136b20 T _ZN6Prefix14reduce_RETC___Ev
0000000000138b80 T _ZN6Prefix14value_expectedEv
0000000000132eb0 T _ZN6Prefix15reduce_A_ASS_B_Ev
0000000000133f40 T _ZN6Prefix15reduce_LBRA_I__Ev
0000000000136f30 T _ZN6Prefix15reduce_RETC_B__Ev
0000000000132cf0 T _ZN6Prefix15reduce_V_ASS_B_Ev
0000000000134d50 T _ZN6Prefix15reduce_V_ASS_F_Ev
00000000004c5228 B _ZN6Prefix16instance_counterE
00000000001348d0 T _ZN6Prefix16reduce_LBRA_B_I_Ev
0000000000139410 T _ZN6Prefix16reduce_MISC_F_B_Ev
0000000000135650 T _ZN6Prefix16reduce_V_C_ASS_BEv
0000000000137160 T _ZN6Prefix17reduce_END_GOTO__Ev
00000000001362c0 T _ZN6Prefix17reduce_END_VOID__Ev
0000000000138c60 T _ZN6Prefix17reduce_MISC_F_C_BEv
000000000013a3c0 T _ZN6Prefix17reduce_statementsEv
0000000000136590 T _ZN6Prefix18reduce_END_GOTO_B_Ev
0000000000137550 T _ZN6Prefix18reduce_RETC_GOTO__Ev
00000000001323c0 T _ZN6Prefix18reduce_RETC_VOID__Ev
0000000000132740 T _ZN6Prefix19reduce_LPAR_B_RPAR_Ev
0000000000137020 T _ZN6Prefix19reduce_RETC_GOTO_B_Ev
000000000013b220 T _ZN6Prefix19reduce_V_RPAR_ASS_BEv
000000000013ba10 W _ZN6Prefix20pop_args_push_resultERK5Token
0000000000132a00 T _ZN6Prefix20reduce_LPAR_F_C_RPAREv
0000000000135f70 T _ZN6Prefix8clean_upEv
000000000013af90 T _ZN6Prefix8locate_LEv
000000000013b0a0 T _ZN6Prefix8locate_REv
000000000013afe0 T _ZN6Prefix8locate_XEv
0000000000135e30 T _ZN6PrefixC1ER14StateIndicatorRK12Token_string
0000000000135e30 T _ZN6PrefixC2ER14StateIndicatorRK12Token_string
00000000001ce450 T _ZN6Quad_L6assignE7Value_PbPKc
00000000001d30f0 T _ZN6Quad_LC1Ev
00000000001d30f0 T _ZN6Quad_LC2Ev
00000000001d7db0 W _ZN6Quad_LD0Ev
00000000001d6970 W _ZN6Quad_LD1Ev
00000000001d6970 W _ZN6Quad_LD2Ev
00000000001ce510 T _ZN6Quad_R6assignE7Value_PbPKc
00000000001d40a0 T _ZN6Quad_RC1Ev
00000000001d40a0 T _ZN6Quad_RC2Ev
00000000001d7330 W _ZN6Quad_RD0Ev
00000000001d5d70 W _ZN6Quad_RD1Ev
00000000001d5d70 W _ZN6Quad_RD2Ev
00000000001ce5d0 T _ZN6Quad_X6assignE7Value_PbPKc
00000000001d4f20 T _ZN6Quad_XC1Ev
00000000001d4f20 T _ZN6Quad_XC2Ev
00000000001d73f0 W _ZN6Quad_XD0Ev
00000000001d6c70 W _ZN6Quad_XD1Ev
00000000001d6c70 W _ZN6Quad_XD2Ev
000000000014f410 W _ZN6Shape3C1ERK5Shapel
000000000014f410 W _ZN6Shape3C2ERK5Shapel
0000000000192810 W _ZN6Symbol10get_symbolEv
00000000001c9d50 T _ZN6Symbol10push_labelE13Function_Line
00000000001c8120 T _ZN6Symbol10push_valueE7Value_P
00000000001c5a10 T _ZN6Symbol10resolve_lvEPKc
00000000001c63a0 T _ZN6Symbol10set_SV_keyEm
00000000001c65b0 T _ZN6Symbol11unshare_varEv
00000000001c4ae0 T _ZN6Symbol12get_functionEv
00000000001c8290 T _ZN6Symbol13push_functionEP8Function
00000000001c63b0 T _ZN6Symbol13resolve_classEb
00000000001c5ff0 T _ZN6Symbol14assign_indexedE7Value_PS0_
00000000001c5180 T _ZN6Symbol14assign_indexedER9IndexExpr7Value_P
00000000001c5f00 T _ZN6Symbol14get_ufun_depthEPK12UserFunction
00000000001c6c50 T _ZN6Symbol17vector_assignmentERSt6vectorIPS_SaIS1_EE7Value_P
00000000001c92d0 T _ZN6Symbol19assign_named_lambdaEP8FunctionPKc
00000000001c7a60 T _ZN6Symbol22assign_shared_variableE7Value_PPKc
00000000001c8390 T _ZN6Symbol23resolve_shared_variableER5Token
00000000001c58a0 T _ZN6Symbol3popEv
00000000001c66e0 T _ZN6Symbol4listERSo
00000000001c9b60 T _ZN6Symbol4pushEv
00000000001c8f90 T _ZN6Symbol6assignE7Value_PbPKc
00000000001c6450 T _ZN6Symbol6set_ncE9NameClass
00000000001c6660 T _ZN6Symbol6set_ncE9NameClassP8Function
00000000001c7f50 T _ZN6Symbol7expungeEv
00000000001c8a60 T _ZN6Symbol7resolveER5Tokenb
00000000001c7970 T _ZN6Symbol8clear_vsEv
00000000001c4aa0 T _ZN6Symbol9get_valueEv
00000000001c6480 T _ZN6Symbol9share_varEm
00000000001c9c00 T _ZN6SymbolC1E2Id
00000000001c9cc0 T _ZN6SymbolC1ERK10UCS_string2Id
00000000001c9c00 T _ZN6SymbolC2E2Id
00000000001c9cc0 T _ZN6SymbolC2ERK10UCS_string2Id
00000000000ba300 W _ZN6SymbolD0Ev
00000000000ba240 W _ZN6SymbolD1Ev
00000000000ba240 W _ZN6SymbolD2Ev
000000000021f410 W _ZN7ALPHA_UD0Ev
000000000021ec90 W _ZN7ALPHA_UD1Ev
000000000021ec90 W _ZN7ALPHA_UD2Ev
00000000004b7848 D _ZN7Bif_JOT3funE
00000000004b99e0 B _ZN7Bif_JOT4_funE
00000000000d2ba0 W _ZN7Bif_JOTD0Ev
00000000000d2b80 W _ZN7Bif_JOTD1Ev
00000000000d2b80 W _ZN7Bif_JOTD2Ev
0000000000152170 T _ZN7ColInfo8considerERKS_
00000000000ecb90 T _ZN7Command10cmd_BOXINGERSoRK10UCS_string
00000000000eb440 T _ZN7Command10do_USERCMDERSoR10UCS_stringRKS1_S4_R17UCS_string_vectori
00000000000ea080 T _ZN7Command10is_lib_refERK10UCS_string
00000000000f7f90 T _ZN7Command10lib_commonERSoRK17UCS_string_vectori
00000000000e8d10 T _ZN7Command11cmd_HISTORYERSoRK10UCS_string
00000000000ef570 T _ZN7Command11cmd_USERCMDERSoRK10UCS_stringR17UCS_string_vector
00000000000e7df0 T _ZN7Command12check_paramsERSoPKciS2_
00000000000e9b10 T _ZN7Command12cmd_CONTINUEERSo
00000000000e9770 T _ZN7Command12is_directoryEP6direntRK11UTF8_string
00000000000ee400 T _ZN7Command12open_LIB_dirER11UTF8_stringRSoRK17UCS_string_vector
00000000000face0 T _ZN7Command12process_lineER10UCS_string
00000000000fad70 T _ZN7Command12process_lineEv
00000000000ba3c0 W _ZN7Command12user_commandD1Ev
00000000000ba3c0 W _ZN7Command12user_commandD2Ev
00000000004b9bd0 B _ZN7Command13boxing_formatE
00000000000ee0b0 T _ZN7Command13parse_from_toER10UCS_stringS1_RKS0_
00000000000f9710 T _ZN7Command14do_APL_commandERSoR10UCS_string
00000000000fb270 T _ZN7Command14finish_contextEv
00000000000e8900 T _ZN7Command14primitive_helpERSoPKciS2_S2_S2_S2_
00000000000ed8f0 T _ZN7Command16transfer_context14process_recordEPKhRK17UCS_string_vector
00000000000eca20 T _ZN7Command16transfer_context3addEPKhi
00000000000fbc20 T _ZN7Command17do_APL_expressionER10UCS_string
00000000000e9d20 T _ZN7Command18check_redefinitionERSoRK10UCS_stringS1_i
00000000000eecf0 T _ZN7Command18resolve_lib_wsnameERSoRK17UCS_string_vectorR6LibRefR10UCS_string
00000000000e9c20 T _ZN7Command19check_name_conflictERSoRK10UCS_stringS1_
00000000004b9bc8 B _ZN7Command20APL_expression_countE
00000000000edbb0 T _ZN7Command6cmd_INERSoR17UCS_string_vectorb
00000000000e9780 T _ZN7Command7cmd_LOGERSoRK10UCS_string
00000000000e98a0 T _ZN7Command7cmd_OFFEi
00000000000ed260 T _ZN7Command7cmd_OUTERSoR17UCS_string_vector
00000000000e8570 T _ZN7Command7val_val15compare_val_valERKS0_S2_PKv
00000000000e8580 T _ZN7Command7val_val16compare_val_val1EPKvS2_
00000000000ed0e0 T _ZN7Command8cmd_COPYERSoR17UCS_string_vectorb
00000000000eaea0 T _ZN7Command8cmd_DOXYERSoR17UCS_string_vector
00000000000ecd80 T _ZN7Command8cmd_DROPERSoRK17UCS_string_vector
00000000000eee50 T _ZN7Command8cmd_DUMPERSoRK17UCS_string_vectorbb
00000000000f2940 T _ZN7Command8cmd_HELPERSoRK10UCS_string
00000000000e8df0 T _ZN7Command8cmd_HOSTERSoRK10UCS_string
00000000000e85b0 T _ZN7Command8cmd_KEYBERSo
00000000000f96f0 T _ZN7Command8cmd_LIB1ERSoRK17UCS_string_vector
00000000000f9700 T _ZN7Command8cmd_LIB2ERSoRK17UCS_string_vector
00000000000e9120 T _ZN7Command8cmd_LIBSERSoRK17UCS_string_vector
00000000000ef180 T _ZN7Command8cmd_LOADERSoR17UCS_string_vectorR10UCS_stringb
00000000000e97a0 T _ZN7Command8cmd_MOREERSo
00000000000ef260 T _ZN7Command8cmd_SAVEERSoRK17UCS_string_vector
00000000000ea100 T _ZN7Command9cmd_CHECKERSo
00000000000e8590 T _ZN7Command9cmd_ERASEERSoR17UCS_string_vector
00000000000e8870 T _ZN7Command9cmd_PSTATERSoRK10UCS_string
00000000000e8400 T _ZN7Command9cmd_XTERMERSoRK10UCS_string
00000000000f7e40 T _ZN7Command9split_argERK10UCS_string
0000000000101510 T _ZN7DiffOut8overflowEi
00000000001012b0 T _ZN7DiffOut9differentEPKhS1_
000000000012f3e0 W _ZN7DiffOutC1Eb
000000000012f3e0 W _ZN7DiffOutC2Eb
0000000000101a90 W _ZN7DiffOutD0Ev
0000000000101b00 W _ZN7DiffOutD1Ev
0000000000101b00 W _ZN7DiffOutD2Ev
0000000000112f20 W _ZN7IntCell7to_typeEv
00000000000c8360 W _ZN7IntCell8vIntCellEv
000000000021f1d0 W _ZN7OMEGA_UD0Ev
000000000021ef90 W _ZN7OMEGA_UD1Ev
000000000021ef90 W _ZN7OMEGA_UD2Ev
00000000004b9350 D _ZN7Quad_AF3funE
00000000004c5d20 B _ZN7Quad_AF4_funE
0000000000159ef0 T _ZN7Quad_AF6eval_BE7Value_P
0000000000163e70 W _ZN7Quad_AFD0Ev
0000000000163cf0 W _ZN7Quad_AFD1Ev
0000000000163cf0 W _ZN7Quad_AFD2Ev
00000000001d2b40 T _ZN7Quad_AIC1Ev
00000000001d2b40 T _ZN7Quad_AIC2Ev
00000000001d79f0 W _ZN7Quad_AID0Ev
00000000001d5fb0 W _ZN7Quad_AID1Ev
00000000001d5fb0 W _ZN7Quad_AID2Ev
00000000004b9348 D _ZN7Quad_AT3funE
00000000004c5ce0 B _ZN7Quad_AT4_funE
000000000015c260 T _ZN7Quad_AT7eval_ABE7Value_PS0_
0000000000163e60 W _ZN7Quad_ATD0Ev
0000000000163ce0 W _ZN7Quad_ATD1Ev
0000000000163ce0 W _ZN7Quad_ATD2Ev
00000000001d2b20 T _ZN7Quad_AV10indexed_atEj
00000000004c7e00 B _ZN7Quad_AV3qavE
00000000001d2970 T _ZN7Quad_AVC1Ev
00000000001d2970 T _ZN7Quad_AVC2Ev
00000000001d6df0 W _ZN7Quad_AVD0Ev
00000000001d6bb0 W _ZN7Quad_AVD1Ev
00000000001d6bb0 W _ZN7Quad_AVD2Ev
000000000016aa80 T _ZN7Quad_CR10close_modeER10UCS_stringNS_6V_modeE
0000000000169d30 T _ZN7Quad_CR10do_CR27_28EbRK5Value
000000000016b3c0 T _ZN7Quad_CR10do_CR31_32EbRK5Value
000000000016e470 T _ZN7Quad_CR11do_CR10_recER17UCS_string_vectorRK5ValueRNS_6PickerEl
000000000016ef50 T _ZN7Quad_CR11do_CR10_varER17UCS_string_vectorRK10UCS_stringRK5Value
000000000016e0d0 T _ZN7Quad_CR11short_ravelER17UCS_string_vectorRbRK5ValueRKNS_6PickerERK10UCS_stringSB_
000000000016dc90 T _ZN7Quad_CR12do_CR10_itemER10UCS_stringRK4CellNS_6V_modeEb
000000000016c8c0 T _ZN7Quad_CR14compute_prologEiRK10UCS_stringRK5Value
0000000000167dd0 T _ZN7Quad_CR14figure_defaultERK5ValueR7UnicodeRl
000000000016aab0 T _ZN7Quad_CR14item_separatorER10UCS_stringNS_6V_modeES2_
0000000000167a80 T _ZN7Quad_CR14list_functionsERSo
00000000004b9358 D _ZN7Quad_CR3funE
00000000004c5dc0 B _ZN7Quad_CR4_funE
000000000016fcd0 T _ZN7Quad_CR5do_CRElPK5Value12PrintContext
000000000016c100 T _ZN7Quad_CR6eval_BE7Value_P
000000000016cbc0 T _ZN7Quad_CR6Picker11get_indexedER10UCS_stringll
000000000016c9e0 T _ZN7Quad_CR6Picker3getER10UCS_string
000000000016f020 T _ZN7Quad_CR7do_CR10ER17UCS_string_vectorRK5Value
000000000016f820 T _ZN7Quad_CR7do_CR10ERK5Value
0000000000167eb0 T _ZN7Quad_CR7do_CR11ERK5Value
000000000016be40 T _ZN7Quad_CR7do_CR12ERK5Value
0000000000168160 T _ZN7Quad_CR7do_CR13ERK5Value
00000000001683a0 T _ZN7Quad_CR7do_CR14ERK5Value
000000000016bf60 T _ZN7Quad_CR7do_CR15ERK5Value
00000000001686d0 T _ZN7Quad_CR7do_CR16ERK5Value
0000000000168e80 T _ZN7Quad_CR7do_CR17ERK5Value
0000000000169540 T _ZN7Quad_CR7do_CR18ERK5Value
0000000000169760 T _ZN7Quad_CR7do_CR19ERK5Value
00000000001699e0 T _ZN7Quad_CR7do_CR26ERK5Value
000000000016a140 T _ZN7Quad_CR7do_CR30ERK5Value
000000000016ab30 T _ZN7Quad_CR7do_CR33ERK5Value
000000000016b090 T _ZN7Quad_CR7do_CR34ERK5Value
000000000016ccc0 T _ZN7Quad_CR7do_CR35ERK5Value
000000000016d740 T _ZN7Quad_CR7do_CR36ERK5Value
0000000000170600 T _ZN7Quad_CR7eval_ABE7Value_PS0_
0000000000167b50 T _ZN7Quad_CR8do_CR5_6EPKcRK5Value
000000000016a9c0 T _ZN7Quad_CR9use_quoteENS_6V_modeERK5Valuel
0000000000170840 W _ZN7Quad_CRD0Ev
0000000000170830 W _ZN7Quad_CRD1Ev
0000000000170830 W _ZN7Quad_CRD2Ev
00000000001d83e0 W _ZN7Quad_CT4pushEv
00000000001cdd80 T _ZN7Quad_CT6assignE7Value_PbPKc
00000000001d2c40 T _ZN7Quad_CTC1Ev
00000000001d2c40 T _ZN7Quad_CTC2Ev
00000000001d7870 W _ZN7Quad_CTD0Ev
00000000001d68b0 W _ZN7Quad_CTD1Ev
00000000001d68b0 W _ZN7Quad_CTD2Ev
00000000004b9340 D _ZN7Quad_DL3funE
00000000004c5ca0 B _ZN7Quad_DL4_funE
0000000000159150 T _ZN7Quad_DL6eval_BE7Value_P
0000000000163e50 W _ZN7Quad_DLD0Ev
0000000000163cd0 W _ZN7Quad_DLD1Ev
0000000000163cd0 W _ZN7Quad_DLD2Ev
00000000004b9338 D _ZN7Quad_EA3funE
00000000004c5c60 B _ZN7Quad_EA4_funE
0000000000158da0 T _ZN7Quad_EA7eval_ABE7Value_PS0_
0000000000163e40 W _ZN7Quad_EAD0Ev
0000000000163cc0 W _ZN7Quad_EAD1Ev
0000000000163cc0 W _ZN7Quad_EAD2Ev
00000000004b9330 D _ZN7Quad_EB3funE
00000000004c5c20 B _ZN7Quad_EB4_funE
0000000000158f30 T _ZN7Quad_EB7eval_ABE7Value_PS0_
0000000000163e30 W _ZN7Quad_EBD0Ev
0000000000163cb0 W _ZN7Quad_EBD1Ev
0000000000163cb0 W _ZN7Quad_EBD2Ev
00000000001594d0 T _ZN7Quad_EC11eval_fill_BE7Value_P
000000000015b620 T _ZN7Quad_EC3eocER5Token
00000000004b9328 D _ZN7Quad_EC3funE
00000000004c5be0 B _ZN7Quad_EC4_funE
00000000001598b0 T _ZN7Quad_EC6eval_BE7Value_P
0000000000163e20 W _ZN7Quad_ECD0Ev
0000000000163ca0 W _ZN7Quad_ECD1Ev
0000000000163ca0 W _ZN7Quad_ECD2Ev
00000000001d7270 W _ZN7Quad_EMD0Ev
00000000001d6130 W _ZN7Quad_EMD1Ev
00000000001d6130 W _ZN7Quad_EMD2Ev
000000000015c740 T _ZN7Quad_ES14event_simulateEPK10UCS_string7Value_PR5Error
000000000015a520 T _ZN7Quad_ES14get_error_codeE7Value_P
00000000004b9318 D _ZN7Quad_ES3funE
00000000004c5b60 B _ZN7Quad_ES4_funE
000000000015cee0 T _ZN7Quad_ES6eval_BE7Value_P
000000000015cd50 T _ZN7Quad_ES7eval_ABE7Value_PS0_
0000000000163e00 W _ZN7Quad_ESD0Ev
0000000000163c80 W _ZN7Quad_ESD1Ev
0000000000163c80 W _ZN7Quad_ESD2Ev
00000000001d7b70 W _ZN7Quad_ETD0Ev
00000000001d65b0 W _ZN7Quad_ETD1Ev
00000000001d65b0 W _ZN7Quad_ETD2Ev
00000000004b9310 D _ZN7Quad_EX3funE
00000000004c5b20 B _ZN7Quad_EX4_funE
000000000015af30 T _ZN7Quad_EX6eval_BE7Value_P
000000000015a660 T _ZN7Quad_EX7expungeE10UCS_string
0000000000163df0 W _ZN7Quad_EXD0Ev
0000000000163c70 W _ZN7Quad_EXD1Ev
0000000000163c70 W _ZN7Quad_EXD2Ev
00000000001d0350 T _ZN7Quad_FC14assign_indexedE7Value_PS0_
00000000001ce390 T _ZN7Quad_FC14assign_indexedER9IndexExpr7Value_P
00000000001cea70 T _ZN7Quad_FC4pushEv
00000000001d00b0 T _ZN7Quad_FC6assignE7Value_PbPKc
00000000001d2d20 T _ZN7Quad_FCC1Ev
00000000001d2d20 T _ZN7Quad_FCC2Ev
00000000001d70f0 W _ZN7Quad_FCD0Ev
00000000001d6af0 W _ZN7Quad_FCD1Ev
00000000001d6af0 W _ZN7Quad_FCD2Ev
0000000000182f50 T _ZN7Quad_FX10do_quad_FXEPKi7Value_PRK11UTF8_stringb
00000000001824a0 T _ZN7Quad_FX10do_quad_FXEPKiRK10UCS_stringRK11UTF8_stringb
0000000000182ab0 T _ZN7Quad_FX12do_native_FXE7Value_PiS0_
00000000004b9378 D _ZN7Quad_FX3funE
00000000004c5f40 B _ZN7Quad_FX4_funE
0000000000183650 T _ZN7Quad_FX6eval_BE7Value_P
00000000001838e0 T _ZN7Quad_FX7eval_ABE7Value_PS0_
0000000000182db0 T _ZN7Quad_FX8eval_AXBE7Value_PS0_S0_
00000000001841b0 W _ZN7Quad_FXD0Ev
00000000001841a0 W _ZN7Quad_FXD1Ev
00000000001841a0 W _ZN7Quad_FXD2Ev
00000000001d8340 W _ZN7Quad_IO4pushEv
00000000001cd7f0 T _ZN7Quad_IO6assignE7Value_PbPKc
00000000001d3010 T _ZN7Quad_IOC1Ev
00000000001d3010 T _ZN7Quad_IOC2Ev
00000000001d7e70 W _ZN7Quad_IOD0Ev
00000000001d6a30 W _ZN7Quad_IOD1Ev
00000000001d6a30 W _ZN7Quad_IOD2Ev
00000000001d31d0 T _ZN7Quad_LCC1Ev
00000000001d31d0 T _ZN7Quad_LCC2Ev
00000000001d7ab0 W _ZN7Quad_LCD0Ev
00000000001d5e30 W _ZN7Quad_LCD1Ev
00000000001d5e30 W _ZN7Quad_LCD2Ev
00000000001d5a10 W _ZN7Quad_LX14assign_indexedE7Value_PS0_
00000000001cdfc0 T _ZN7Quad_LX6assignE7Value_PbPKc
00000000001d32b0 T _ZN7Quad_LXC1Ev
00000000001d32b0 T _ZN7Quad_LXC2Ev
00000000001d7630 W _ZN7Quad_LXD0Ev
00000000001d67f0 W _ZN7Quad_LXD1Ev
00000000001d67f0 W _ZN7Quad_LXD2Ev
00000000004b9300 D _ZN7Quad_NA3funE
00000000004c59c0 B _ZN7Quad_NA4_funE
0000000000163d60 W _ZN7Quad_NA6eval_BE7Value_P
0000000000163d80 W _ZN7Quad_NA7eval_ABE7Value_PS0_
0000000000163e90 W _ZN7Quad_NAD0Ev
0000000000163d10 W _ZN7Quad_NAD1Ev
0000000000163d10 W _ZN7Quad_NAD2Ev
00000000004b92f8 D _ZN7Quad_NC3funE
00000000004c5980 B _ZN7Quad_NC4_funE
000000000015b2b0 T _ZN7Quad_NC6eval_BE7Value_P
000000000015a6a0 T _ZN7Quad_NC6get_NCE10UCS_string
0000000000163de0 W _ZN7Quad_NCD0Ev
0000000000163c60 W _ZN7Quad_NCD1Ev
0000000000163c60 W _ZN7Quad_NCD2Ev
000000000015eeb0 T _ZN7Quad_NL10do_quad_NLE7Value_PS0_
00000000004b92f0 D _ZN7Quad_NL3funE
00000000004c5940 B _ZN7Quad_NL4_funE
00000000001647d0 W _ZN7Quad_NL6eval_BE7Value_P
00000000001648c0 W _ZN7Quad_NL7eval_ABE7Value_PS0_
0000000000163e80 W _ZN7Quad_NLD0Ev
0000000000163d00 W _ZN7Quad_NLD1Ev
0000000000163d00 W _ZN7Quad_NLD2Ev
00000000001d82a0 W _ZN7Quad_PP4pushEv
00000000001cd900 T _ZN7Quad_PP6assignE7Value_PbPKc
00000000001d3380 T _ZN7Quad_PPC1Ev
00000000001d3380 T _ZN7Quad_PPC2Ev
00000000001d7c30 W _ZN7Quad_PPD0Ev
00000000001d5ef0 W _ZN7Quad_PPD1Ev
00000000001d5ef0 W _ZN7Quad_PPD2Ev
00000000001d8200 W _ZN7Quad_PR4pushEv
00000000001ce940 T _ZN7Quad_PR6assignE7Value_PbPKc
00000000001d3620 T _ZN7Quad_PRC1Ev
00000000001d3620 T _ZN7Quad_PRC2Ev
00000000001d74b0 W _ZN7Quad_PRD0Ev
00000000001d6670 W _ZN7Quad_PRD1Ev
00000000001d6670 W _ZN7Quad_PRD2Ev
00000000001cf270 T _ZN7Quad_PS14assign_indexedE7Value_PS0_
00000000001d8160 W _ZN7Quad_PS4pushEv
00000000001ced30 T _ZN7Quad_PS6assignE7Value_PbPKc
00000000001d3700 T _ZN7Quad_PSC1Ev
00000000001d3700 T _ZN7Quad_PSC2Ev
00000000001d77b0 W _ZN7Quad_PSD0Ev
00000000001d5cb0 W _ZN7Quad_PSD1Ev
00000000001d5cb0 W _ZN7Quad_PSD2Ev
00000000001d80c0 W _ZN7Quad_PW4pushEv
00000000001cda20 T _ZN7Quad_PW6assignE7Value_PbPKc
00000000001d38f0 T _ZN7Quad_PWC1Ev
00000000001d38f0 T _ZN7Quad_PWC2Ev
00000000001d7570 W _ZN7Quad_PWD0Ev
00000000001d5a70 W _ZN7Quad_PWD1Ev
00000000001d5a70 W _ZN7Quad_PWD2Ev
00000000004b9398 D _ZN7Quad_RE3funE
00000000004c61c0 B _ZN7Quad_RE4_funE
00000000001920d0 W _ZN7Quad_RE6eval_BE7Value_P
0000000000192100 W _ZN7Quad_RE7eval_ABE7Value_PS0_
00000000001920b0 W _ZN7Quad_RE7eval_XBE7Value_PS0_
0000000000192070 T _ZN7Quad_RE8eval_AXBE7Value_PS0_S0_
00000000001920f0 W _ZN7Quad_RED0Ev
00000000001920a0 W _ZN7Quad_RED1Ev
00000000001920a0 W _ZN7Quad_RED2Ev
0000000000192760 T _ZN7Quad_RL10get_randomEv
0000000000192290 T _ZN7Quad_RL3popEv
00000000001923c0 T _ZN7Quad_RL4pushEv
00000000004c6210 B _ZN7Quad_RL5stateE
00000000001922c0 T _ZN7Quad_RL6assignE7Value_PbPKc
0000000000192460 T _ZN7Quad_RLC1Ev
0000000000192460 T _ZN7Quad_RLC2Ev
0000000000192920 W _ZN7Quad_RLD0Ev
0000000000192860 W _ZN7Quad_RLD1Ev
0000000000192860 W _ZN7Quad_RLD2Ev
00000000004b92e8 D _ZN7Quad_SI3funE
00000000004c5900 B _ZN7Quad_SI4_funE
000000000015d750 T _ZN7Quad_SI6eval_BE7Value_P
000000000015d020 T _ZN7Quad_SI7eval_ABE7Value_PS0_
0000000000163dd0 W _ZN7Quad_SID0Ev
0000000000163c50 W _ZN7Quad_SID1Ev
0000000000163c50 W _ZN7Quad_SID2Ev
00000000001d4180 T _ZN7Quad_TCC1Ev
00000000001d4180 T _ZN7Quad_TCC2Ev
00000000001d6d30 W _ZN7Quad_TCD0Ev
00000000001d62b0 W _ZN7Quad_TCD1Ev
00000000001d62b0 W _ZN7Quad_TCD2Ev
0000000000199a20 T _ZN7Quad_TF10is_inverseERK10UCS_string
00000000001a0300 T _ZN7Quad_TF11tf2_fun_ucsER10UCS_stringRKS0_RK8Function
00000000001a00f0 T _ZN7Quad_TF12tf2_char_vecER10UCS_stringRKS0_
000000000019cc90 T _ZN7Quad_TF12tf2_simplifyER12Token_string
000000000019adf0 T _ZN7Quad_TF14tf2_remove_RHOER12Token_stringRi
000000000019ab60 T _ZN7Quad_TF14tf2_remove_UCSER12Token_string
000000000019c4c0 T _ZN7Quad_TF16tf2_remove_COMMAER12Token_stringRi
000000000019b240 T _ZN7Quad_TF18tf2_remove_ENCLOSEER12Token_stringRi
000000000019b790 T _ZN7Quad_TF19tf2_remove_ENCLOSE1ER12Token_stringRi
000000000019bd00 T _ZN7Quad_TF19tf2_remove_sequenceER12Token_stringRi
0000000000199d30 T _ZN7Quad_TF20tf2_remove_sequence1ER12Token_stringRi
000000000019a610 T _ZN7Quad_TF22tf2_remove_parenthesesER12Token_stringRi
000000000019a7a0 T _ZN7Quad_TF26tf2_remove_ENCLOSE_ENCLOSEER12Token_stringRi
00000000004b93d0 D _ZN7Quad_TF3funE
000000000019db70 T _ZN7Quad_TF3tf1ERK10UCS_string
000000000019cd50 T _ZN7Quad_TF3tf1ERK10UCS_string7Value_P
000000000019d5f0 T _ZN7Quad_TF3tf1ERK10UCS_stringRK8Function
00000000001a0740 T _ZN7Quad_TF3tf2ERK10UCS_string
0000000000199a90 T _ZN7Quad_TF3tf3ERK10UCS_string
00000000004c6420 B _ZN7Quad_TF4_funE
00000000001a0be0 T _ZN7Quad_TF6no_UCSERK10UCS_string
00000000001a18d0 T _ZN7Quad_TF7eval_ABE7Value_PS0_
000000000019dd20 T _ZN7Quad_TF7tf1_invERK10UCS_string
00000000001a06f0 T _ZN7Quad_TF7tf2_funERK10UCS_stringRK8Function
00000000001a0de0 T _ZN7Quad_TF7tf2_invERK10UCS_string
000000000019fd10 T _ZN7Quad_TF7tf2_varERK10UCS_string7Value_P
000000000019a910 T _ZN7Quad_TF8tf2_glueER12Token_stringRi
000000000019eb60 T _ZN7Quad_TF9tf2_shapeER10UCS_stringRK5Shape
000000000019ed90 T _ZN7Quad_TF9tf2_valueEiR10UCS_string7Value_P
00000000001a1d60 W _ZN7Quad_TFD0Ev
00000000001a1d50 W _ZN7Quad_TFD1Ev
00000000001a1d50 W _ZN7Quad_TFD2Ev
00000000001d43a0 T _ZN7Quad_TSC1Ev
00000000001d43a0 T _ZN7Quad_TSC2Ev
00000000001d7930 W _ZN7Quad_TSD0Ev
00000000001d6430 W _ZN7Quad_TSD1Ev
00000000001d6430 W _ZN7Quad_TSD2Ev
00000000001d4480 T _ZN7Quad_TZ14compute_offsetEv
00000000001d7ff0 W _ZN7Quad_TZ3popEv
00000000001d8490 W _ZN7Quad_TZ4pushEv
00000000001ce150 T _ZN7Quad_TZ6assignE7Value_PbPKc
00000000001d4550 T _ZN7Quad_TZC1Ev
00000000001d4550 T _ZN7Quad_TZC2Ev
00000000001d7030 W _ZN7Quad_TZD0Ev
00000000001d6370 W _ZN7Quad_TZD1Ev
00000000001d6370 W _ZN7Quad_TZD2Ev
00000000001d4e50 T _ZN7Quad_ULC1Ev
00000000001d4e50 T _ZN7Quad_ULC2Ev
00000000001d71b0 W _ZN7Quad_ULD0Ev
00000000001d5bf0 W _ZN7Quad_ULD1Ev
00000000001d5bf0 W _ZN7Quad_ULD2Ev
00000000004c6468 B _ZN7Quad_WA12initial_sbrkE
00000000004b93e0 D _ZN7Quad_WA12total_memoryE
00000000004b93e8 D _ZN7Quad_WA14initial_rlimitE
00000000001a1f10 T _ZN7Quad_WA15get_free_memoryEv
00000000001a2060 T _ZN7Quad_WA4initEb
00000000004b93d8 D _ZN7Quad_WA8WA_scaleE
00000000004c6470 B _ZN7Quad_WA9WA_marginE
00000000001a1e30 T _ZN7Quad_WAC1Ev
00000000001a1e30 T _ZN7Quad_WAC2Ev
00000000001a2670 W _ZN7Quad_WAD0Ev
00000000001a25b0 W _ZN7Quad_WAD1Ev
00000000001a25b0 W _ZN7Quad_WAD2Ev
00000000001b8f30 T _ZN7Svar_DB10get_eventsER10Svar_event7AP_num3
00000000001b8da0 T _ZN7Svar_DB11retract_varEm
00000000001b8820 T _ZN7Svar_DB11set_controlEm12Svar_Control
00000000001b8170 T _ZN7Svar_DB12DB_tcp_errorEPKcii
00000000004b950c D _ZN7Svar_DB13APserver_portE
00000000001b9ff0 T _ZN7Svar_DB13match_or_makeEPKjRK7AP_num3RK12Svar_partner
00000000001b75f0 T _ZN7Svar_DB14start_APserverEPKcS1_b
00000000001b8730 T _ZN7Svar_DB15get_Svar_DB_tcpEPKc
00000000001b9260 T _ZN7Svar_DB16clear_all_eventsE7AP_num3
00000000001b9a60 T _ZN7Svar_DB16find_offering_idEm
00000000001baa10 T _ZN7Svar_DB16find_pairing_keyEm
00000000001b9d00 T _ZN7Svar_DB16is_registered_idERK7AP_num3
00000000001b7b60 T _ZN7Svar_DB19connect_to_APserverEPKcS1_ib
00000000001bb020 T _ZN7Svar_DB21get_offered_variablesE6AP_numS0_RSt6vectorIjSaIjEE
00000000001bada0 T _ZN7Svar_DB23get_offering_processorsE6AP_numRSt6vectorIS0_SaIS0_EE
00000000001b8660 T _ZN7Svar_DB4initEPKcS1_ibb
00000000001bac10 T _ZN7Svar_DB5printERSo
00000000004b9508 D _ZN7Svar_DB6DB_tcpE
00000000001b9560 T _ZN7Svar_DB7may_setEmi
00000000001b97e0 T _ZN7Svar_DB7may_useEmi
00000000001b8a10 T _ZN7Svar_DB9add_eventEm7AP_num310Svar_event
00000000001ba670 T _ZN7Svar_DB9set_stateEmbPKc
00000000001645e0 W _ZN7Value_PaSERKS_
000000000014f6d0 W _ZN7Value_PC1ElPKc
000000000014f590 W _ZN7Value_PC1EPKc
00000000001644a0 W _ZN7Value_PC1ERK10UCS_stringPKc
00000000001ae4a0 W _ZN7Value_PC1ERK4CellPKc
00000000000ba090 W _ZN7Value_PC1ERK5ShapePKc
000000000014f6d0 W _ZN7Value_PC2ElPKc
000000000014f590 W _ZN7Value_PC2EPKc
00000000001644a0 W _ZN7Value_PC2ERK10UCS_stringPKc
00000000001ae4a0 W _ZN7Value_PC2ERK4CellPKc
00000000000ba090 W _ZN7Value_PC2ERK5ShapePKc
00000000000c83b0 W _ZN7Value_PD1Ev
00000000000c83b0 W _ZN7Value_PD2Ev
00000000000fd8e0 T _ZN7YMDhmsuC1El
00000000000fd8e0 T _ZN7YMDhmsuC2El
00000000000dae00 T _ZN8Bif_SCAN4scanER5Token7Value_Pj
00000000000dc240 T _ZN8Bif_SCAN6expandE7Value_PS0_j
00000000000e7cb0 W _ZN8CharCell7to_typeEv
0000000000170a80 T _ZN8DLX_Node12get_col_typeERK4Cell
00000000000c4ed0 W _ZN8Function10eval_ALRXBE7Value_PR5TokenS2_S0_S0_
000000000010b130 W _ZN8Function11eval_fill_BE7Value_P
000000000010b110 W _ZN8Function12eval_fill_ABE7Value_PS0_
00000000000c4e50 W _ZN8Function17eval_identity_funE7Value_Pi
000000000010aad0 T _ZN8Function5eval_Ev
000000000010aa10 T _ZN8Function6eval_BE7Value_P
00000000000c4de0 W _ZN8Function7destroyEv
000000000010aa30 T _ZN8Function7eval_ABE7Value_PS0_
000000000010aa50 T _ZN8Function7eval_LBER5Token7Value_P
00000000000c4eb0 W _ZN8Function7eval_XBE7Value_PS0_
000000000010aa70 T _ZN8Function8eval_ALBE7Value_PR5TokenS0_
00000000000c4f10 W _ZN8Function8eval_AXBE7Value_PS0_S0_
000000000010aa90 T _ZN8Function8eval_LRBER5TokenS1_7Value_P
00000000000c4e90 W _ZN8Function8eval_LXBER5Token7Value_PS2_
00000000000c4df0 W _ZN8Function8locate_XEv
000000000010aab0 T _ZN8Function9eval_ALRBE7Value_PR5TokenS2_S0_
00000000000c4ef0 W _ZN8Function9eval_ALXBE7Value_PR5TokenS0_S0_
00000000000c4e70 W _ZN8Function9eval_LRXBER5TokenS1_7Value_PS2_
00000000000c4d90 W _ZN8Function9get_ufun1Ev
00000000004c4700 B _ZN8InputMux17get_line_callbackE
0000000000120c50 T _ZN8InputMux8get_lineE13LineInputModeRK10UCS_stringRS1_RbR11LineHistory
00000000004c24d4 B _ZN8IO_Files10apl_errorsE
00000000001139b0 T _ZN8IO_Files10diff_errorEv
00000000004c24c0 B _ZN8IO_Files10need_totalE
00000000004c24cc B _ZN8IO_Files11diff_errorsE
0000000000113980 T _ZN8IO_Files12assert_errorEv
00000000004c24c8 B _ZN8IO_Files12parse_errorsE
0000000000113880 T _ZN8IO_Files12syntax_errorEv
00000000004c24d8 B _ZN8IO_Files12total_errorsE
00000000004c24d0 B _ZN8IO_Files13assert_errorsE
00000000001152d0 T _ZN8IO_Files13get_file_lineER11UTF8_stringRb
0000000000113270 T _ZN8IO_Files13print_summaryEv
0000000000115150 T _ZN8IO_Files14open_next_fileEv
0000000000112ff0 T _ZN8IO_Files14read_file_lineER11UTF8_stringRb
00000000004c24e0 B _ZN8IO_Files14testcase_countE
00000000004c24dc B _ZN8IO_Files14testcases_doneE
0000000000113840 T _ZN8IO_Files17expect_apl_errorsERK10UCS_string
00000000004c22c0 B _ZN8IO_Files18current_testreportE
00000000004b8478 D _ZN8IO_Files18last_apl_error_locE
00000000001139e0 T _ZN8IO_Files19end_of_current_fileEv
00000000004b8474 D _ZN8IO_Files19last_apl_error_lineE
0000000000113940 T _ZN8IO_Files9apl_errorEPKc
0000000000115210 T _ZN8IO_Files9next_fileEv
00000000004c24c4 B _ZN8IO_Files9test_modeE
000000000011d6d0 T _ZN8LibPaths10is_presentE6LibRef
000000000011d1d0 T _ZN8LibPaths11get_lib_dirE6LibRef
000000000011be40 T _ZN8LibPaths11is_lib_rootEPKc
000000000011c0d0 T _ZN8LibPaths11set_lib_dirE6LibRefPKcNS_6LibDir6CfgSrcE
00000000004b8480 D _ZN8LibPaths12APL_bin_nameE
00000000004c36e0 B _ZN8LibPaths12APL_bin_pathE
00000000004c26c0 B _ZN8LibPaths12APL_lib_rootE
00000000004c46e2 B _ZN8LibPaths13root_from_envE
00000000004c46e1 B _ZN8LibPaths13root_from_pwdE
000000000011c730 T _ZN8LibPaths16compute_bin_pathEPKcb
000000000011d770 T _ZN8LibPaths16get_lib_filenameE6LibRefRK11UTF8_stringbPKcS5_
000000000011c0a0 T _ZN8LibPaths16set_APL_lib_rootEPKc
000000000011bef0 T _ZN8LibPaths19search_APL_lib_rootEv
000000000011c2e0 T _ZN8LibPaths20maybe_warn_ambiguousEi11UTF8_stringPKcS2_
000000000011d080 T _ZN8LibPaths4initEPKcb
00000000004c2520 B _ZN8LibPaths8lib_dirsE
0000000000122060 W _ZN8LvalCell9vLvalCellEv
0000000000122010 T _ZN8LvalCellC1EP4CellP5Value
0000000000122010 T _ZN8LvalCellC2EP4CellP5Value
00000000004b93f8 D _ZN8Parallel10print_semaE
00000000001a28c0 T _ZN8Parallel11unlock_poolEb
00000000001a2e20 T _ZN8Parallel11worker_mainEPv
00000000004c64c0 B _ZN8Parallel12run_parallelE
00000000001a2f20 T _ZN8Parallel13init_all_CPUsEb
00000000001a2a90 T _ZN8Parallel14set_core_countE9CoreCountb
00000000004b93f0 D _ZN8Parallel19pthread_create_semaE
00000000001a2ed0 T _ZN8Parallel4initEb
00000000004cb560 B _ZN8Parallel8all_CPUsE
00000000001a27e0 T _ZN8Parallel9lock_poolEb
00000000001d2c20 T _ZN8Quad_ARGC1Ev
00000000001d2c20 T _ZN8Quad_ARGC2Ev
00000000001d76f0 W _ZN8Quad_ARGD0Ev
00000000001d6730 W _ZN8Quad_ARGD1Ev
00000000001d6730 W _ZN8Quad_ARGD2Ev
00000000004b9360 D _ZN8Quad_DLX3funE
00000000004c5e20 B _ZN8Quad_DLX4_funE
0000000000172d80 T _ZN8Quad_DLX6do_DLXElRK5Value
00000000001739e0 T _ZN8Quad_DLX6eval_BE7Value_P
0000000000173a40 T _ZN8Quad_DLX7eval_ABE7Value_PS0_
0000000000173c60 W _ZN8Quad_DLXD0Ev
0000000000173c50 W _ZN8Quad_DLXD1Ev
0000000000173c50 W _ZN8Quad_DLXD2Ev
00000000004b9320 D _ZN8Quad_ENV3funE
00000000004c5ba0 B _ZN8Quad_ENV4_funE
000000000015dfd0 T _ZN8Quad_ENV6eval_BE7Value_P
0000000000163e10 W _ZN8Quad_ENVD0Ev
0000000000163c90 W _ZN8Quad_ENVD1Ev
0000000000163c90 W _ZN8Quad_ENVD2Ev
00000000001742f0 T _ZN8Quad_FFT11fill_windowEPdRK5ShapePFdllE
00000000001756b0 W _ZN8Quad_FFT11hann_windowEll
0000000000175700 W _ZN8Quad_FFT14hamming_windowEll
0000000000175750 W _ZN8Quad_FFT15blackman_windowEll
00000000001757e0 W _ZN8Quad_FFT22blackman_harris_windowEll
00000000001758b0 W _ZN8Quad_FFT23blackman_nuttall_windowEll
00000000004b9368 D _ZN8Quad_FFT3funE
00000000004c5e80 B _ZN8Quad_FFT4_funE
0000000000174640 T _ZN8Quad_FFT6do_fftEi7Value_PPFdllE
0000000000174be0 T _ZN8Quad_FFT6eval_BE7Value_P
00000000001751b0 T _ZN8Quad_FFT7eval_ABE7Value_PS0_
0000000000174420 T _ZN8Quad_FFT7init_inEPv7Value_PPFdllE
0000000000175980 W _ZN8Quad_FFT8flat_topEll
0000000000174c90 T _ZN8Quad_FFT9do_windowE7Value_PPFdllE
0000000000175a80 W _ZN8Quad_FFTD0Ev
00000000001756a0 W _ZN8Quad_FFTD1Ev
00000000001756a0 W _ZN8Quad_FFTD2Ev
0000000000179e00 T _ZN8Quad_FIO10do_sprintfER10UCS_stringRKS0_PK5Valuei
0000000000176170 T _ZN8Quad_FIO10fds_to_valEP6fd_seti
00000000001763d0 T _ZN8Quad_FIO10get_randomEll
000000000017a5d0 T _ZN8Quad_FIO12close_handleEi
0000000000176050 T _ZN8Quad_FIO14get_file_entryEi
0000000000181b50 W _ZN8Quad_FIO14get_file_entryERK5Value
0000000000176870 T _ZN8Quad_FIO14list_functionsERSo
00000000004b9370 D _ZN8Quad_FIO3funE
00000000004c5ee0 B _ZN8Quad_FIO4_funE
0000000000175ef0 T _ZN8Quad_FIO5clearEv
0000000000176f30 T _ZN8Quad_FIO6eval_BE7Value_P
00000000001769d0 T _ZN8Quad_FIO7eval_ABE7Value_PS0_
000000000017d1c0 T _ZN8Quad_FIO7eval_XBE7Value_PS0_
0000000000178bb0 T _ZN8Quad_FIO8do_scanfER14File_or_StringRK10UCS_string
000000000017a7b0 T _ZN8Quad_FIO8eval_AXBE7Value_PS0_S0_
0000000000175b00 T _ZN8Quad_FIO8eval_LXBER5Token7Value_PS2_
00000000001760e0 T _ZN8Quad_FIO8get_FILEEi
0000000000177d00 T _ZN8Quad_FIO9do_FIO_57ERK10UCS_string
000000000017a370 T _ZN8Quad_FIO9do_printfEP8_IO_FILE7Value_P
0000000000176750 T _ZN8Quad_FIO9fget_utf8EP8_IO_FILERl
0000000000178190 T _ZN8Quad_FIOC1Ev
0000000000178190 T _ZN8Quad_FIOC2Ev
0000000000181ab0 W _ZN8Quad_FIOD0Ev
00000000001819f0 W _ZN8Quad_FIOD1Ev
00000000001819f0 W _ZN8Quad_FIOD2Ev
0000000000184ca0 T _ZN8Quad_GTK11open_windowERK10UCS_stringPS1_
00000000001849e0 T _ZN8Quad_GTK12close_windowEi
0000000000186230 T _ZN8Quad_GTK13poll_responseEii
00000000001856a0 T _ZN8Quad_GTK14resolve_windowEPK5ValueR11UTF8_string
00000000001844b0 T _ZN8Quad_GTK16resolve_fun_nameER11UTF8_stringPK5Value
00000000004b9380 D _ZN8Quad_GTK3funE
00000000004c5fa0 B _ZN8Quad_GTK4_funE
0000000000184af0 T _ZN8Quad_GTK5clearEv
0000000000186e90 T _ZN8Quad_GTK6eval_BE7Value_P
00000000001850b0 T _ZN8Quad_GTK7eval_ABE7Value_PS0_
0000000000186ba0 T _ZN8Quad_GTK7eval_XBE7Value_PS0_
0000000000185850 T _ZN8Quad_GTK7read_fdEii
0000000000186390 T _ZN8Quad_GTK8eval_AXBE7Value_PS0_S0_
0000000000186030 T _ZN8Quad_GTK8poll_allEv
0000000000184920 T _ZN8Quad_GTK9write_TL0Eii
0000000000184b90 T _ZN8Quad_GTK9write_TLVEiiRK11UTF8_string
0000000000187a50 W _ZN8Quad_GTKD0Ev
0000000000187ae0 W _ZN8Quad_GTKD1Ev
0000000000187ae0 W _ZN8Quad_GTKD2Ev
00000000001617a0 T _ZN8Quad_INP12read_stringsEv
0000000000162860 T _ZN8Quad_INP13split_stringsEv
00000000004b9308 D _ZN8Quad_INP3funE
00000000004c5a00 B _ZN8Quad_INP4_funE
0000000000161a60 T _ZN8Quad_INP6eval_BE7Value_P
0000000000163020 T _ZN8Quad_INP7eval_ABE7Value_PS0_
0000000000161e80 T _ZN8Quad_INP7eval_XBE7Value_PS0_
000000000015e8b0 T _ZN8Quad_INP7get_escE7Value_PR10UCS_stringS2_
0000000000163ea0 W _ZN8Quad_INPD0Ev
0000000000164080 W _ZN8Quad_INPD1Ev
0000000000164080 W _ZN8Quad_INPD2Ev
00000000004b93a0 D _ZN8Quad_SQL3funE
00000000004c6220 B _ZN8Quad_SQL4_funE
0000000000193590 T _ZN8Quad_SQL6eval_BE7Value_P
00000000001935e0 T _ZN8Quad_SQL7eval_ABE7Value_PS0_
0000000000194070 T _ZN8Quad_SQL7eval_XBE7Value_PS0_
0000000000194f50 T _ZN8Quad_SQL8eval_AXBE7Value_PS0_S0_
0000000000193ce0 T _ZN8Quad_SQLC1Ev
0000000000193ce0 T _ZN8Quad_SQLC2Ev
0000000000192a60 T _ZN8Quad_SQLD0Ev
00000000001929e0 T _ZN8Quad_SQLD1Ev
00000000001929e0 T _ZN8Quad_SQLD2Ev
00000000004b93c8 D _ZN8Quad_SVC3funE
00000000004c63c0 B _ZN8Quad_SVC4_funE
0000000000197100 T _ZN8Quad_SVC6eval_BE7Value_P
00000000001969c0 T _ZN8Quad_SVC7eval_ABE7Value_PS0_
00000000001996c0 W _ZN8Quad_SVCD0Ev
0000000000199670 W _ZN8Quad_SVCD1Ev
0000000000199670 W _ZN8Quad_SVCD2Ev
0000000000195e80 T _ZN8Quad_SVE6assignE7Value_PbPKc
00000000004c62a0 B _ZN8Quad_SVE9timer_endE
0000000000196760 T _ZN8Quad_SVEC1Ev
0000000000196760 T _ZN8Quad_SVEC2Ev
0000000000199790 W _ZN8Quad_SVED0Ev
00000000001996d0 W _ZN8Quad_SVED1Ev
00000000001996d0 W _ZN8Quad_SVED2Ev
0000000000196830 T _ZN8Quad_SVO18share_one_variableE6AP_numPKjR11SV_Coupling
00000000004b93c0 D _ZN8Quad_SVO3funE
00000000004c6380 B _ZN8Quad_SVO4_funE
0000000000197cd0 T _ZN8Quad_SVO6eval_BE7Value_P
00000000001975a0 T _ZN8Quad_SVO7eval_ABE7Value_PS0_
00000000001996b0 W _ZN8Quad_SVOD0Ev
0000000000199660 W _ZN8Quad_SVOD1Ev
0000000000199660 W _ZN8Quad_SVOD2Ev
0000000000199030 T _ZN8Quad_SVQ13get_variablesE6AP_num
00000000001988b0 T _ZN8Quad_SVQ14get_processorsEv
00000000004b93b8 D _ZN8Quad_SVQ3funE
00000000004c6340 B _ZN8Quad_SVQ4_funE
00000000001993e0 T _ZN8Quad_SVQ6eval_BE7Value_P
00000000001996a0 W _ZN8Quad_SVQD0Ev
0000000000199650 W _ZN8Quad_SVQD1Ev
0000000000199650 W _ZN8Quad_SVQD2Ev
00000000004b93b0 D _ZN8Quad_SVR3funE
00000000004c6300 B _ZN8Quad_SVR4_funE
00000000001980a0 T _ZN8Quad_SVR6eval_BE7Value_P
0000000000199690 W _ZN8Quad_SVRD0Ev
0000000000199640 W _ZN8Quad_SVRD1Ev
0000000000199640 W _ZN8Quad_SVRD2Ev
00000000004b93a8 D _ZN8Quad_SVS3funE
00000000004c62c0 B _ZN8Quad_SVS4_funE
0000000000198410 T _ZN8Quad_SVS6eval_BE7Value_P
0000000000199680 W _ZN8Quad_SVSD0Ev
0000000000199630 W _ZN8Quad_SVSD1Ev
0000000000199630 W _ZN8Quad_SVSD2Ev
00000000001961f0 T _ZN8Quad_SVx13is_executableEPKc
0000000000196340 T _ZN8Quad_SVx8start_APE6AP_num
00000000001cd1d0 T _ZN8Quad_SYL14assign_indexedE7Value_PS0_
00000000001ce690 T _ZN8Quad_SYL14assign_indexedER9IndexExpr7Value_P
00000000004c8218 B _ZN8Quad_SYL14si_depth_limitE
00000000004c8208 B _ZN8Quad_SYL17ravel_count_limitE
00000000004c8210 B _ZN8Quad_SYL17value_count_limitE
00000000004c8200 B _ZN8Quad_SYL18print_length_limitE
00000000001cdb00 T _ZN8Quad_SYL6assignE7Value_PbPKc
00000000001d6f70 W _ZN8Quad_SYLD0Ev
00000000001d64f0 W _ZN8Quad_SYLD1Ev
00000000001d64f0 W _ZN8Quad_SYLD2Ev
00000000004b92e0 D _ZN8Quad_UCS3funE
00000000004c58c0 B _ZN8Quad_UCS4_funE
000000000015a1f0 T _ZN8Quad_UCS6eval_BE7Value_P
0000000000163dc0 W _ZN8Quad_UCSD0Ev
0000000000163c40 W _ZN8Quad_UCSD1Ev
0000000000163c40 W _ZN8Quad_UCSD2Ev
00000000002139c0 T _ZN8VH_entry13print_historyERSoPK5ValuePKc
00000000004c8400 B _ZN8VH_entry3idxE
0000000000213930 T _ZN8VH_entry4initEv
00000000004c8420 B _ZN8VH_entry7historyE
00000000002138e0 T _ZN8VH_entryC1EPK5Value8VH_eventiPKc
00000000002138e0 T _ZN8VH_entryC2EPK5Value8VH_eventiPKc
00000000001bbcf0 W _ZN8YES_NO_cD0Ev
00000000001bbb80 W _ZN8YES_NO_cD1Ev
00000000001bbb80 W _ZN8YES_NO_cD2Ev
00000000004b9588 B _ZN9Backtrace12lines_statusE
00000000000bcff0 T _ZN9Backtrace13demangle_lineEPcmPKc
00000000000bd2a0 T _ZN9Backtrace15open_lines_fileEv
00000000000bd850 T _ZN9Backtrace4showEPKci
00000000000bd200 T _ZN9Backtrace6callerEi
00000000000bcaa0 T _ZN9Backtrace8find_srcEl
00000000004b9570 B _ZN9Backtrace8pc_2_srcE
00000000000bcb50 T _ZN9Backtrace9show_itemEiPc
00000000001452b0 T _ZN9Bif_COMMA10ravel_axisE7Value_PS0_j
00000000001436a0 T _ZN9Bif_COMMA13append_scalarE7Value_PjRK4Cell
0000000000143160 T _ZN9Bif_COMMA14prepend_scalarERK4Cellj7Value_P
0000000000142a40 T _ZN9Bif_COMMA5ravelERK5Shape7Value_P
0000000000143b00 T _ZN9Bif_COMMA8catenateE7Value_PiS0_
0000000000144a90 T _ZN9Bif_COMMA8laminateE7Value_PiS0_
00000000001af1b0 W _ZN9Bif_F2_OR17eval_identity_funE7Value_Pi
00000000004b9468 D _ZN9Bif_F2_OR3funE
00000000004c7720 B _ZN9Bif_F2_OR4_funE
00000000001b3980 W _ZN9Bif_F2_OR7eval_ABE7Value_PS0_
00000000001b1990 W _ZN9Bif_F2_OR8eval_AXBE7Value_PS0_S0_
00000000001ae3c0 W _ZN9Bif_F2_ORD0Ev
00000000001ae230 W _ZN9Bif_F2_ORD1Ev
00000000001ae230 W _ZN9Bif_F2_ORD2Ev
000000000010a950 W _ZN9FloatCell10vFloatCellEv
000000000010a090 T _ZN9FloatCell12need_scalingEdi
000000000010a060 T _ZN9FloatCell6is_bigEdi
000000000010a5d0 T _ZN9FloatCell6map_FCER10UCS_string
000000000010a980 W _ZN9FloatCell7to_typeEv
000000000010ef80 T _ZN9IndexExpr11erase_staleEPKc
000000000010ea10 T _ZN9IndexExpr11extract_allEv
000000000010f2b0 T _ZN9IndexExpr11print_staleERSo
000000000010e9a0 T _ZN9IndexExpr13extract_valueEj
000000000010ed70 T _ZN9IndexExpr9set_valueEj7Value_P
000000000010e8d0 T _ZN9IndexExprC1E12Assign_statePKc
000000000010e8d0 T _ZN9IndexExprC2E12Assign_statePKc
000000000010e950 T _ZN9IndexExprD1Ev
000000000010e950 T _ZN9IndexExprD2Ev
00000000004c2280 B _ZN9InputFile10files_origE
00000000004c22a0 B _ZN9InputFile10files_todoE
000000000010fee0 T _ZN9InputFile12check_filterERK11UTF8_string
00000000004b8470 D _ZN9InputFile13stdin_line_noE
0000000000110390 T _ZN9InputFile15randomize_filesEv
000000000010feb0 T _ZN9InputFile17echo_current_fileEv
000000000010fdb0 T _ZN9InputFile17open_current_fileEv
000000000010fe50 T _ZN9InputFile18close_current_fileEv
0000000000111080 W _ZN9InputFileD1Ev
0000000000111080 W _ZN9InputFileD2Ev
000000000011f240 T _ZN9LineInput10safe_fgetcEv
00000000004c47e8 B _ZN9LineInput14the_line_inputE
0000000000120bd0 T _ZN9LineInput17get_terminal_lineE13LineInputModeRK10UCS_stringRS1_RbR11LineHistory
0000000000121b40 T _ZN9LineInput4initEb
000000000011f290 T _ZN9LineInput7get_uniEv
0000000000120780 T _ZN9LineInput9edit_lineE13LineInputModeRK10UCS_stringRS1_RbR11LineHistory
0000000000121a60 T _ZN9LineInputC1Eb
0000000000121a60 T _ZN9LineInputC2Eb
000000000011f150 T _ZN9LineInputD1Ev
000000000011f150 T _ZN9LineInputD2Ev
0000000000122d70 T _ZN9LineLabel4nextEv
0000000000122e40 T _ZN9LineLabel6insertEv
00000000001bbd20 W _ZN9MAY_SET_cD0Ev
00000000001bbbb0 W _ZN9MAY_SET_cD1Ev
00000000001bbbb0 W _ZN9MAY_SET_cD2Ev
00000000001bbd30 W _ZN9MAY_USE_cD0Ev
00000000001bbbc0 W _ZN9MAY_USE_cD1Ev
00000000001bbbc0 W _ZN9MAY_USE_cD2Ev
0000000000187db0 T _ZN9Plot_data14Color_from_strEPKcRS1_
000000000018e480 T _ZN9Quad_PLOT10setup_dataEPK5Value
00000000004c6020 B _ZN9Quad_PLOT12plot_threadsE
00000000004b9388 D _ZN9Quad_PLOT17plot_threads_semaE
00000000004b9390 D _ZN9Quad_PLOT3funE
00000000004c6060 B _ZN9Quad_PLOT4_funE
00000000001915d0 T _ZN9Quad_PLOT6eval_BE7Value_P
00000000001919c0 T _ZN9Quad_PLOT7eval_ABE7Value_PS0_
00000000001914f0 T _ZN9Quad_PLOT9plot_dataEP22Plot_window_propertiesPK9Plot_data
000000000018e420 T _ZN9Quad_PLOTC1Ev
000000000018e420 T _ZN9Quad_PLOTC2Ev
0000000000187cc0 T _ZN9Quad_PLOTD0Ev
0000000000187ca0 T _ZN9Quad_PLOTD1Ev
0000000000187ca0 T _ZN9Quad_PLOTD2Ev
00000000001d3c20 T _ZN9Quad_Quad6assignE7Value_PbPKc
00000000001d3c50 T _ZN9Quad_Quad7resolveER5Tokenb
00000000001d39d0 T _ZN9Quad_QuadC1Ev
00000000001d39d0 T _ZN9Quad_QuadC2Ev
00000000001d7cf0 W _ZN9Quad_QuadD0Ev
00000000001d6070 W _ZN9Quad_QuadD1Ev
00000000001d6070 W _ZN9Quad_QuadD2Ev
00000000004b92d8 D _ZN9Quad_STOP3funE
00000000004c5880 B _ZN9Quad_STOP4_funE
000000000015ae50 T _ZN9Quad_STOP6eval_BE7Value_P
000000000015ed30 T _ZN9Quad_STOP7eval_ABE7Value_PS0_
0000000000163db0 W _ZN9Quad_STOPD0Ev
0000000000163c30 W _ZN9Quad_STOPD1Ev
0000000000163c30 W _ZN9Quad_STOPD2Ev
00000000001ee710 T _ZN9Tokenizer11do_tokenizeERK10UCS_stringR12Token_string
00000000001ec750 T _ZN9Tokenizer13tokenize_quadER14Unicode_sourceR12Token_string
00000000001eb850 T _ZN9Tokenizer13tokenize_realER14Unicode_sourceRbRdRl
00000000001ee030 T _ZN9Tokenizer15tokenize_numberER14Unicode_sourceR12Token_string
00000000001ed7d0 T _ZN9Tokenizer15tokenize_symbolER14Unicode_sourceR12Token_string
00000000001ecbb0 T _ZN9Tokenizer16tokenize_string1ER14Unicode_sourceR12Token_string
00000000001ed120 T _ZN9Tokenizer16tokenize_string2ER14Unicode_sourceR12Token_string
00000000001eac00 T _ZN9Tokenizer17tokenize_functionE7Unicode
00000000001eb770 T _ZN9Tokenizer17tokenize_functionER14Unicode_sourceR12Token_string
00000000001ef950 T _ZN9Tokenizer8tokenizeERK10UCS_stringR12Token_string
0000000000216e20 T _ZN9Workspace10SI_top_funEv
0000000000216dc0 T _ZN9Workspace11clear_errorEPKc
00000000002171f0 T _ZN9Workspace11oldest_execEPK10Executable
0000000000217450 T _ZN9Workspace11show_ownersERSoRK5Value
0000000000216e70 T _ZN9Workspace12SI_top_errorEv
0000000000217ba0 T _ZN9Workspace13dump_commandsERSo
00000000004cb6a0 B _ZN9Workspace13the_workspaceE
00000000002177f0 T _ZN9Workspace16cleanup_expungedERSoRb
0000000000217230 T _ZN9Workspace17unmark_all_valuesEv
0000000000216ec0 T _ZN9Workspace19immediate_executionEb
0000000000217dd0 T _ZN9Workspace20backup_existing_fileEPKc
000000000021a730 T _ZN9Workspace20lookup_existing_nameERK10UCS_string
000000000021a9b0 T _ZN9Workspace22lookup_existing_symbolERK10UCS_string
00000000000fbf70 W _ZN9Workspace4listERSo12ListCategory10UCS_string
000000000021cc70 T _ZN9Workspace4wsidERSo10UCS_string6LibRefb
0000000000216d50 T _ZN9Workspace6get_RLEm
0000000000216cf0 T _ZN9Workspace6pop_SIEPKc
0000000000207b00 W _ZN9Workspace6set_PWEiPKc
000000000021e790 T _ZN9Workspace7copy_WSERSo6LibRefRK10UCS_stringR17UCS_string_vectorb
00000000002182e0 T _ZN9Workspace7dump_WSERSo6LibRefRK10UCS_stringbb
0000000000217af0 T _ZN9Workspace7list_SIERSo7SI_mode
000000000021dff0 T _ZN9Workspace7load_WSERSo6LibRefRK10UCS_stringRS2_b
000000000021a0e0 T _ZN9Workspace7push_SIEP10ExecutablePKc
000000000021c340 T _ZN9Workspace7save_WSERSo6LibRefRK10UCS_stringb
0000000000217ab0 T _ZN9Workspace8clear_SIERSo
000000000021af00 T _ZN9Workspace8clear_WSERSob
000000000021a3c0 T _ZN9Workspace8get_quadERK10UCS_stringRi
000000000021abb0 T _ZN9Workspace9is_calledERK10UCS_string
000000000021d0a0 T _ZN9Workspace9load_DUMPERSoRK11UTF8_stringi7LX_modebP17UCS_string_vector
000000000021ac80 T _ZN9Workspace9write_OUTEP8_IO_FILERmRK17UCS_string_vector
0000000000214560 T _ZN9WorkspaceC1Ev
0000000000214560 T _ZN9WorkspaceC2Ev
000000000021f830 W _ZN9WorkspaceD1Ev
000000000021f830 W _ZN9WorkspaceD2Ev
                 U _Znam
00000000001adeb0 W _ZNK10Bif_F2_AND13get_scalar_f2Ev
00000000001adec0 W _ZNK10Bif_F2_AND9get_assocEv
00000000001adf30 W _ZNK10Bif_F2_LEQ13get_scalar_f2Ev
00000000001adf40 W _ZNK10Bif_F2_MEQ13get_scalar_f2Ev
00000000001adf70 W _ZNK10Bif_F2_NOR13get_scalar_f2Ev
00000000000da700 W _ZNK10Bif_REDUCE11may_push_SIEv
0000000000107c50 W _ZNK10Executable10line_startE13Function_Line
0000000000104010 T _ZNK10Executable10print_textERSo
0000000000107c20 W _ZNK10Executable10pushes_symEPK6Symbol
0000000000103eb0 T _ZNK10Executable11print_tokenERSo
0000000000104870 T _ZNK10Executable11show_ownersEPKcRSoRK5Value
0000000000103da0 T _ZNK10Executable12execute_bodyEv
0000000000107bf0 W _ZNK10Executable14cannot_suspendEv
00000000001041a0 T _ZNK10Executable14set_error_infoER5Error12Function_PC2
0000000000105240 T _ZNK10Executable14statement_textE11Function_PC
0000000000104690 T _ZNK10Executable17unmark_all_valuesEv
0000000000105610 T _ZNK10Executable19extract_lambda_textE13Fun_signaturei
00000000001040e0 T _ZNK10Executable19get_statement_startEi
0000000000107cb0 W _ZNK10Executable5printERSo
0000000000107c40 W _ZNK10Executable8get_lineE11Function_PC
0000000000107c10 W _ZNK10Executable8get_ufunEv
0000000000107c00 W _ZNK10Executable9get_sym_ZEv
00000000000c2270 T _ZNK10Format_sub17insert_int_commasERK10UCS_stringRb
00000000000c0570 T _ZNK10Format_sub19insert_fract_commasERK10UCS_string
00000000000be110 T _ZNK10Format_sub5printERSo
00000000001d3e20 T _ZNK10Quad_QUOTE13get_apl_valueEv
00000000001a69e0 W _ZNK10Statistics10get_recordEv
00000000001a69d0 W _ZNK10Statistics16get_first_recordEv
00000000001f1250 T _ZNK10UCS_string10copy_blackERS_Ri
00000000001f1560 T _ZNK10UCS_string10remove_padEv
00000000001efe00 T _ZNK10UCS_string10substr_posERKS_
00000000001eff00 T _ZNK10UCS_string11starts_withEPKc
00000000001efff0 T _ZNK10UCS_string11starts_withERKS_
00000000001f0060 T _ZNK10UCS_string12starts_iwithEPKc
00000000001f00f0 T _ZNK10UCS_string12starts_iwithERKS_
00000000001f08d0 T _ZNK10UCS_string14lexical_beforeES_
00000000001f0370 T _ZNK10UCS_string17double_quote_lastEv
00000000001f0240 T _ZNK10UCS_string18double_quote_countEb
00000000001f0310 T _ZNK10UCS_string18double_quote_firstEv
00000000001f01b0 T _ZNK10UCS_string19is_comment_or_labelEv
00000000001efc60 T _ZNK10UCS_string20compute_chunk_lengthEii
00000000001f0400 T _ZNK10UCS_string4atoiEv
00000000001f0940 T _ZNK10UCS_string4dumpERSo
00000000001f0b00 T _ZNK10UCS_string4sortEv
00000000001f1440 T _ZNK10UCS_string6no_padEv
00000000001f23c0 T _ZNK10UCS_string6uniqueEv
00000000001f1680 T _ZNK10UCS_string7reverseEv
00000000001f5470 T _ZNK10UCS_string7to_HTMLEib
00000000001efdd0 T _ZNK10UCS_string8LF_countEv
00000000001f61f0 T _ZNK10UCS_string9do_escapeEb
00000000001eff50 T _ZNK10UCS_string9ends_withEPKc
00000000001efec0 T _ZNK10UCS_string9has_blackEv
00000000001f67d0 T _ZNK10UCS_string9to_vectorER17UCS_string_vector
00000000001f5960 T _ZNK10UCS_string9un_escapeEbb
00000000001bb470 W _ZNK10VALUE_IS_c11get_sigNameEv
00000000001bb480 W _ZNK10VALUE_IS_c18get__VALUE_IS__keyEv
00000000001bb490 W _ZNK10VALUE_IS_c20get__VALUE_IS__errorEv
00000000001bc3f0 W _ZNK10VALUE_IS_c24get__VALUE_IS__cdr_valueB5cxx11Ev
00000000001bc420 W _ZNK10VALUE_IS_c24get__VALUE_IS__error_locB5cxx11Ev
00000000001c33d0 W _ZNK10VALUE_IS_c5printERSo
00000000001bfef0 W _ZNK10VALUE_IS_c5storeERNSt7__cxx1112basic_stringIcSt11char_traitsIcESaIcEEE
00000000001bb460 W _ZNK10VALUE_IS_c9get_sigIDEv
00000000001bb990 W _ZNK11ADD_EVENT_c11get_sigNameEv
00000000001bb9a0 W _ZNK11ADD_EVENT_c19get__ADD_EVENT__keyEv
00000000001bb9b0 W _ZNK11ADD_EVENT_c20get__ADD_EVENT__procEv
00000000001bb9e0 W _ZNK11ADD_EVENT_c21get__ADD_EVENT__eventEv
00000000001bb9d0 W _ZNK11ADD_EVENT_c21get__ADD_EVENT__grandEv
00000000001bb9c0 W _ZNK11ADD_EVENT_c22get__ADD_EVENT__parentEv
00000000001c2bc0 W _ZNK11ADD_EVENT_c5printERSo
00000000001be4b0 W _ZNK11ADD_EVENT_c5storeERNSt7__cxx1112basic_stringIcSt11char_traitsIcESaIcEEE
00000000001bb980 W _ZNK11ADD_EVENT_c9get_sigIDEv
00000000001adf60 W _ZNK11Bif_F2_FIND13get_scalar_f2Ev
00000000001ade60 W _ZNK11Bif_F2_LESS13get_scalar_f2Ev
00000000001adf90 W _ZNK11Bif_F2_NAND13get_scalar_f2Ev
00000000001adf10 W _ZNK11Bif_F2_OR_B13get_scalar_f2Ev
00000000001adf20 W _ZNK11Bif_F2_OR_B9get_assocEv
00000000001adf50 W _ZNK11Bif_F2_UNEQ13get_scalar_f2Ev
00000000000fec10 T _ZNK11ComplexCell10bif_divideEP4CellPKS0_
0000000000101280 W _ZNK11ComplexCell10init_otherEPvR5ValuePKc
00000000000ff1a0 T _ZNK11ComplexCell11bif_ceilingEP4Cell
00000000000fe130 T _ZNK11ComplexCell11bif_maximumEP4CellPKS0_
00000000000fdfb0 T _ZNK11ComplexCell11bif_minimumEP4CellPKS0_
00000000000fe9c0 T _ZNK11ComplexCell11bif_nat_logEP4Cell
00000000000ff650 T _ZNK11ComplexCell11bif_residueEP4CellPKS0_
00000000000fdd00 T _ZNK11ComplexCell11is_near_intEv
00000000000fdcc0 T _ZNK11ComplexCell11is_near_oneEv
00000000000feb70 T _ZNK11ComplexCell12bif_multiplyEP4CellPKS0_
00000000000fe970 T _ZNK11ComplexCell12bif_negativeEP4Cell
00000000000ff100 T _ZNK11ComplexCell12bif_pi_timesEP4Cell
00000000000ff990 T _ZNK11ComplexCell12bif_subtractEP4CellPKS0_
00000000000fde20 T _ZNK11ComplexCell12get_near_intEv
00000000000fdba0 T _ZNK11ComplexCell12is_near_realEv
00000000000fdc80 T _ZNK11ComplexCell12is_near_zeroEv
00000000000fdf60 T _ZNK11ComplexCell12need_scalingERK12PrintContext
00000000000fe920 T _ZNK11ComplexCell13bif_conjugateEP4Cell
00000000000ff820 T _ZNK11ComplexCell13bif_directionEP4Cell
0000000000100b30 T _ZNK11ComplexCell13bif_factorialEP4Cell
00000000000ffad0 T _ZNK11ComplexCell13bif_logarithmEP4CellPKS0_
00000000000fdc20 T _ZNK11ComplexCell13bif_magnitudeEP4Cell
00000000001011e0 W _ZNK11ComplexCell13get_cell_typeEv
0000000000101230 W _ZNK11ComplexCell13get_classnameEv
00000000000fdd60 T _ZNK11ComplexCell13get_near_boolEv
0000000000100650 T _ZNK11ComplexCell14bif_circle_funEP4CellPKS0_
00000000000ff510 T _ZNK11ComplexCell14bif_reciprocalEP4Cell
00000000000fdb90 T _ZNK11ComplexCell14get_imag_valueEv
00000000000fdb80 T _ZNK11ComplexCell14get_real_valueEv
00000000000fdbe0 T _ZNK11ComplexCell15bif_add_inverseEP4CellPKS0_
00000000000ff940 T _ZNK11ComplexCell15bif_exponentialEP4Cell
0000000000101190 W _ZNK11ComplexCell15is_complex_cellEv
00000000000fdd30 T _ZNK11ComplexCell15is_near_int64_tEv
00000000000fed60 T _ZNK11ComplexCell16bif_near_int64_tEP4Cell
00000000001011f0 W _ZNK11ComplexCell17get_complex_valueEv
00000000000fee60 T _ZNK11ComplexCell18bif_within_quad_CTEP4Cell
00000000000fdc00 T _ZNK11ComplexCell20bif_multiply_inverseEP4CellPKS0_
00000000000ff150 T _ZNK11ComplexCell20bif_pi_times_inverseEP4Cell
0000000000101200 W _ZNK11ComplexCell20get_checked_near_intEv
00000000001006f0 T _ZNK11ComplexCell22bif_circle_fun_inverseEP4CellPKS0_
0000000000100c80 T _ZNK11ComplexCell24character_representationERK12PrintContext
00000000000fe3d0 T _ZNK11ComplexCell5equalERK4Celld
00000000000ffa30 T _ZNK11ComplexCell7bif_addEP4CellPKS0_
00000000000fe4d0 T _ZNK11ComplexCell7compareERK4Cell
00000000000fde90 T _ZNK11ComplexCell7greaterERK4Cell
00000000000fe2b0 T _ZNK11ComplexCell8bif_rollEP4Cell
0000000000101240 W _ZNK11ComplexCell8CDR_sizeEv
00000000000fe6a0 T _ZNK11ComplexCell9bif_equalEP4CellPKS0_
00000000000ff310 T _ZNK11ComplexCell9bif_floorEP4Cell
00000000000fea10 T _ZNK11ComplexCell9bif_powerEP4CellPKS0_
00000000001011a0 W _ZNK11ComplexCell9is_finiteEv
0000000000107c90 W _ZNK11ExecuteList8get_nameEv
00000000001bb440 W _ZNK11GET_VALUE_c11get_sigNameEv
00000000001bb450 W _ZNK11GET_VALUE_c19get__GET_VALUE__keyEv
00000000001c08e0 W _ZNK11GET_VALUE_c5printERSo
00000000001bd130 W _ZNK11GET_VALUE_c5storeERNSt7__cxx1112basic_stringIcSt11char_traitsIcESaIcEEE
00000000001bb430 W _ZNK11GET_VALUE_c9get_sigIDEv
00000000000c4cb0 W _ZNK11NamedObject10get_symbolEv
00000000001285f0 T _ZNK11NamedObject6get_ncEv
00000000000c4f40 W _ZNK11NamedObject8get_nameEv
0000000000101180 W _ZNK11NumericCell10is_numericEv
000000000012ce30 T _ZNK11NumericCell12bif_binomialEP4CellPKS0_
000000000012deb0 W _ZNK11NumericCell13get_classnameEv
000000000012be20 T _ZNK11NumericCell14bif_or_bitwiseEP4CellPKS0_
000000000012bba0 T _ZNK11NumericCell15bif_and_bitwiseEP4CellPKS0_
000000000012bda0 T _ZNK11NumericCell15bif_nor_bitwiseEP4CellPKS0_
000000000012bb40 T _ZNK11NumericCell15bif_not_bitwiseEP4Cell
000000000012bd20 T _ZNK11NumericCell16bif_nand_bitwiseEP4CellPKS0_
000000000012bc20 T _ZNK11NumericCell17bif_equal_bitwiseEP4CellPKS0_
000000000012bca0 T _ZNK11NumericCell21bif_not_equal_bitwiseEP4CellPKS0_
000000000012db20 T _ZNK11NumericCell6bif_orEP4CellPKS0_
000000000012d700 T _ZNK11NumericCell7bif_andEP4CellPKS0_
000000000012c030 T _ZNK11NumericCell7bif_norEP4CellPKS0_
000000000012bea0 T _ZNK11NumericCell7bif_notEP4Cell
000000000012bf50 T _ZNK11NumericCell8bif_nandEP4CellPKS0_
000000000013c3f0 T _ZNK11PointerCell10init_otherEPvR5ValuePKc
000000000013d590 W _ZNK11PointerCell13get_cell_typeEv
000000000013d5a0 W _ZNK11PointerCell13get_classnameEv
000000000013c610 T _ZNK11PointerCell15deep_cell_typesEv
000000000013d580 W _ZNK11PointerCell15is_pointer_cellEv
000000000013bc00 T _ZNK11PointerCell17get_pointer_valueEv
000000000013c6b0 T _ZNK11PointerCell18deep_cell_subtypesEv
000000000013c750 T _ZNK11PointerCell24character_representationERK12PrintContext
000000000013be40 T _ZNK11PointerCell5equalERK4Celld
000000000013c060 T _ZNK11PointerCell7compareERK4Cell
000000000013bc30 T _ZNK11PointerCell7greaterERK4Cell
000000000013d5b0 W _ZNK11PointerCell8CDR_sizeEv
00000000001520e0 T _ZNK11PrintBuffer14is_rectangularEv
00000000001518e0 T _ZNK11PrintBuffer5debugERSoPKc
00000000001515b0 T _ZNK11PrintBuffer8get_charEii
00000000001bb3c0 W _ZNK11SET_STATE_c11get_sigNameEv
00000000001bb3d0 W _ZNK11SET_STATE_c19get__SET_STATE__keyEv
00000000001bc450 W _ZNK11SET_STATE_c20get__SET_STATE__slocB5cxx11Ev
00000000001bb3e0 W _ZNK11SET_STATE_c25get__SET_STATE__new_stateEv
00000000001c35b0 W _ZNK11SET_STATE_c5printERSo
00000000001bf9e0 W _ZNK11SET_STATE_c5storeERNSt7__cxx1112basic_stringIcSt11char_traitsIcESaIcEEE
00000000001bb3b0 W _ZNK11SET_STATE_c9get_sigIDEv
0000000000167030 W _ZNK11Signal_base16get__YES_NO__yesEv
00000000001670f0 W _ZNK11Signal_base17get__MAY_SET__keyEv
0000000000167130 W _ZNK11Signal_base17get__MAY_USE__keyEv
00000000001671d0 W _ZNK11Signal_base18get__VALUE_IS__keyEv
0000000000166d10 W _ZNK11Signal_base19get__ADD_EVENT__keyEv
00000000001671f0 W _ZNK11Signal_base19get__GET_VALUE__keyEv
0000000000167270 W _ZNK11Signal_base19get__SET_STATE__keyEv
0000000000166cf0 W _ZNK11Signal_base20get__ADD_EVENT__procEv
0000000000166d50 W _ZNK11Signal_base20get__EVENTS_ARE__keyEv
00000000001672d0 W _ZNK11Signal_base20get__MAKE_OFFER__keyEv
0000000000167450 W _ZNK11Signal_base20get__SET_STATE__slocB5cxx11Ev
00000000001671b0 W _ZNK11Signal_base20get__VALUE_IS__errorEv
0000000000166c90 W _ZNK11Signal_base21get__ADD_EVENT__eventEv
0000000000166cb0 W _ZNK11Signal_base21get__ADD_EVENT__grandEv
0000000000166e10 W _ZNK11Signal_base21get__GET_EVENTS__procEv
00000000001670d0 W _ZNK11Signal_base21get__MAY_SET__attemptEv
0000000000167110 W _ZNK11Signal_base21get__MAY_USE__attemptEv
0000000000167290 W _ZNK11Signal_base21get__RETRACT_VAR__keyEv
0000000000167230 W _ZNK11Signal_base21get__SET_CONTROL__keyEv
0000000000166cd0 W _ZNK11Signal_base22get__ADD_EVENT__parentEv
0000000000167190 W _ZNK11Signal_base22get__ASSIGN_VALUE__keyEv
0000000000166dd0 W _ZNK11Signal_base22get__GET_EVENTS__grandEv
0000000000166d30 W _ZNK11Signal_base23get__EVENTS_ARE__eventsEv
0000000000166df0 W _ZNK11Signal_base23get__GET_EVENTS__parentEv
0000000000166c50 W _ZNK11Signal_base23get__READ_WSWS_VAR__keyEv
00000000001672b0 W _ZNK11Signal_base23get__RETRACT_OFFER__keyEv
0000000000167170 W _ZNK11Signal_base23get__SVAR_ASSIGNED__keyEv
0000000000167410 W _ZNK11Signal_base24get__VALUE_IS__cdr_valueB5cxx11Ev
0000000000167430 W _ZNK11Signal_base24get__VALUE_IS__error_locB5cxx11Ev
0000000000166c70 W _ZNK11Signal_base25get__ASSIGN_WSWS_VAR__keyEv
0000000000166f10 W _ZNK11Signal_base25get__OFFERING_ID_IS__procEv
0000000000167250 W _ZNK11Signal_base25get__SET_STATE__new_stateEv
0000000000167150 W _ZNK11Signal_base25get__SVAR_ASSIGNED__errorEv
0000000000166f30 W _ZNK11Signal_base26get__FIND_OFFERING_ID__keyEv
0000000000166e50 W _ZNK11Signal_base26get__FIND_PAIRING_KEY__keyEv
0000000000166ed0 W _ZNK11Signal_base26get__OFFERING_ID_IS__grandEv
00000000001670b0 W _ZNK11Signal_base26get__READ_SVAR_RECORD__keyEv
0000000000166db0 W _ZNK11Signal_base27get__CLEAR_ALL_EVENTS__procEv
0000000000167090 W _ZNK11Signal_base27get__IS_REGISTERED_ID__procEv
0000000000167010 W _ZNK11Signal_base27get__MATCH_OR_MAKE__to_procEv
0000000000167390 W _ZNK11Signal_base27get__MATCH_OR_MAKE__varnameB5cxx11Ev
0000000000166ef0 W _ZNK11Signal_base27get__OFFERING_ID_IS__parentEv
00000000001673b0 W _ZNK11Signal_base27get__SVAR_RECORD_IS__recordB5cxx11Ev
00000000001673f0 W _ZNK11Signal_base28get__ASSIGN_VALUE__cdr_valueB5cxx11Ev
0000000000166d70 W _ZNK11Signal_base28get__CLEAR_ALL_EVENTS__grandEv
0000000000167050 W _ZNK11Signal_base28get__IS_REGISTERED_ID__grandEv
0000000000166fd0 W _ZNK11Signal_base28get__MATCH_OR_MAKE__to_grandEv
0000000000166d90 W _ZNK11Signal_base29get__CLEAR_ALL_EVENTS__parentEv
0000000000167070 W _ZNK11Signal_base29get__IS_REGISTERED_ID__parentEv
0000000000166fb0 W _ZNK11Signal_base29get__MATCH_OR_MAKE__from_procEv
0000000000166ff0 W _ZNK11Signal_base29get__MATCH_OR_MAKE__to_parentEv
00000000001c1650 W _ZNK11Signal_base29get__REGISTER_PROCESSOR__procEv
0000000000167210 W _ZNK11Signal_base29get__SET_CONTROL__new_controlEv
00000000001673d0 W _ZNK11Signal_base29get__SVAR_ASSIGNED__error_locB5cxx11Ev
0000000000167310 W _ZNK11Signal_base29get__WSWS_VALUE_IS__cdr_valueB5cxx11Ev
0000000000166f70 W _ZNK11Signal_base30get__MATCH_OR_MAKE__from_grandEv
0000000000166f50 W _ZNK11Signal_base30get__MATCH_OR_MAKE_RESULT__keyEv
00000000001c1610 W _ZNK11Signal_base30get__REGISTER_PROCESSOR__grandEv
00000000001672f0 W _ZNK11Signal_base30get__SVAR_DB_PRINTED__printoutB5cxx11Ev
0000000000167330 W _ZNK11Signal_base31get__ASSIGN_WSWS_VAR__cdr_valueB5cxx11Ev
0000000000166f90 W _ZNK11Signal_base31get__MATCH_OR_MAKE__from_parentEv
00000000001c15f0 W _ZNK11Signal_base31get__REGISTER_PROCESSOR__evconnEv
00000000001c1630 W _ZNK11Signal_base31get__REGISTER_PROCESSOR__parentEv
0000000000166e30 W _ZNK11Signal_base32get__PAIRING_KEY_IS__pairing_keyEv
00000000001c1670 W _ZNK11Signal_base33get__REGISTER_PROCESSOR__prognameB5cxx11Ev
0000000000167350 W _ZNK11Signal_base35get__OFFERED_VARS_ARE__offered_varsB5cxx11Ev
0000000000166e90 W _ZNK11Signal_base38get__GET_OFFERED_VARS__offered_to_procEv
0000000000166e70 W _ZNK11Signal_base39get__GET_OFFERED_VARS__accepted_by_procEv
0000000000167370 W _ZNK11Signal_base39get__OFFERING_PROCS_ARE__offering_procsB5cxx11Ev
0000000000166eb0 W _ZNK11Signal_base40get__GET_OFFERING_PROCS__offered_to_procEv
0000000000166b90 W _ZNK11Signal_base7bad_getEPKcS1_
00000000001c9de0 W _ZNK11Signal_base8send_TCPEi
00000000001c3ec0 T _ZNK11Svar_record10match_nameEPKj
00000000001c3f60 T _ZNK11Svar_record11get_controlEv
00000000001c3e70 T _ZNK11Svar_record11is_ws_to_wsEv
00000000001c4830 T _ZNK11Svar_record5printERSo
00000000001c3fc0 T _ZNK11Svar_record8bad_procEPKcRK7AP_num3
00000000001c3fb0 T _ZNK11Svar_record9get_stateEv
00000000001ca990 T _ZNK11SymbolTable11list_symbolERSoRK10UCS_string
00000000001cacf0 T _ZNK11SymbolTable11show_ownersERSoRK5Value
00000000001cb7f0 T _ZNK11SymbolTable15get_all_symbolsEv
00000000001cacb0 T _ZNK11SymbolTable17unmark_all_valuesEv
00000000001cad60 T _ZNK11SymbolTable17write_all_symbolsEP8_IO_FILERm
00000000001cb3b0 T _ZNK11SymbolTable4dumpERSoRiS1_
00000000001cbda0 T _ZNK11SymbolTable4listERSo12ListCategory10UCS_string
0000000000208750 T _ZNK11UTF8_string11starts_withEPKc
0000000000207bb0 T _ZNK11UTF8_string8dump_hexERSoi
00000000002087f0 T _ZNK11UTF8_string9ends_withEPKc
000000000014ea10 W _ZNK12Bif_F0_ZILDE11may_push_SIEv
00000000001ae0d0 W _ZNK12Bif_F12_LOGA13get_scalar_f2Ev
00000000001a7e60 T _ZNK12Bif_F12_LOGA18get_dyadic_inverseEv
00000000001a7e60 T _ZNK12Bif_F12_LOGA19get_monadic_inverseEv
00000000001adfc0 W _ZNK12Bif_F12_PLUS13get_scalar_f2Ev
00000000001a7eb0 T _ZNK12Bif_F12_PLUS18get_dyadic_inverseEv
00000000001adfe0 W _ZNK12Bif_F12_PLUS9get_assocEv
00000000001ae000 W _ZNK12Bif_F12_ROLL13get_scalar_f2Ev
00000000001aded0 W _ZNK12Bif_F2_AND_B13get_scalar_f2Ev
00000000001adee0 W _ZNK12Bif_F2_AND_B9get_assocEv
00000000001ade70 W _ZNK12Bif_F2_EQUAL13get_scalar_f2Ev
00000000001adf80 W _ZNK12Bif_F2_NOR_B13get_scalar_f2Ev
00000000001bb950 W _ZNK12EVENTS_ARE_c11get_sigNameEv
00000000001bb960 W _ZNK12EVENTS_ARE_c20get__EVENTS_ARE__keyEv
00000000001bb970 W _ZNK12EVENTS_ARE_c23get__EVENTS_ARE__eventsEv
00000000001c2ce0 W _ZNK12EVENTS_ARE_c5printERSo
00000000001bd4a0 W _ZNK12EVENTS_ARE_c5storeERNSt7__cxx1112basic_stringIcSt11char_traitsIcESaIcEEE
00000000001bb940 W _ZNK12EVENTS_ARE_c9get_sigIDEv
00000000001bb8b0 W _ZNK12GET_EVENTS_c11get_sigNameEv
00000000001bb8c0 W _ZNK12GET_EVENTS_c21get__GET_EVENTS__procEv
00000000001bb8e0 W _ZNK12GET_EVENTS_c22get__GET_EVENTS__grandEv
00000000001bb8d0 W _ZNK12GET_EVENTS_c23get__GET_EVENTS__parentEv
00000000001be780 W _ZNK12GET_EVENTS_c5printERSo
00000000001bdad0 W _ZNK12GET_EVENTS_c5storeERNSt7__cxx1112basic_stringIcSt11char_traitsIcESaIcEEE
00000000001bb8a0 W _ZNK12GET_EVENTS_c9get_sigIDEv
00000000001bb330 W _ZNK12MAKE_OFFER_c11get_sigNameEv
00000000001bb340 W _ZNK12MAKE_OFFER_c20get__MAKE_OFFER__keyEv
00000000001c0ae0 W _ZNK12MAKE_OFFER_c5printERSo
00000000001bc580 W _ZNK12MAKE_OFFER_c5storeERNSt7__cxx1112basic_stringIcSt11char_traitsIcESaIcEEE
00000000001bb320 W _ZNK12MAKE_OFFER_c9get_sigIDEv
0000000000163be0 W _ZNK12QuadFunction10has_resultEv
0000000000163bd0 W _ZNK12QuadFunction9has_alphaEv
00000000001c3b50 T _ZNK12Svar_partner5printERSo
00000000001e9e10 T _ZNK12Token_string5printERSob
00000000001fdff0 W _ZNK12UserFunction10get_macnumEv
0000000000128540 W _ZNK12UserFunction10has_resultEv
00000000001f7920 T _ZNK12UserFunction10line_startE13Function_Line
00000000001f7620 T _ZNK12UserFunction10pushes_symEPK6Symbol
0000000000128560 W _ZNK12UserFunction11is_operatorEv
00000000001fa0b0 T _ZNK12UserFunction11line_prefixE13Function_Line
00000000001285c0 W _ZNK12UserFunction11may_push_SIEv
00000000001f9ff0 T _ZNK12UserFunction11pc_for_lineE13Function_Line
0000000000128570 W _ZNK12UserFunction14cannot_suspendEv
00000000001284e0 W _ZNK12UserFunction15get_fun_valenceEv
0000000000128510 W _ZNK12UserFunction16get_oper_valenceEv
00000000001f7c40 T _ZNK12UserFunction16print_propertiesERSoi
00000000001fb7d0 T _ZNK12UserFunction17get_name_and_lineE11Function_PC
0000000000103d90 W _ZNK12UserFunction19get_exec_propertiesEv
00000000001fa9b0 T _ZNK12UserFunction21set_locked_error_infoER5Error
00000000001fa140 T _ZNK12UserFunction4helpERSo
00000000001f74f0 T _ZNK12UserFunction5printERSo
00000000001f76c0 T _ZNK12UserFunction8get_lineE11Function_PC
00000000000b9fe0 W _ZNK12UserFunction8get_nameEv
0000000000128480 W _ZNK12UserFunction8get_ufunEv
0000000000128550 W _ZNK12UserFunction8has_axisEv
00000000001fa850 T _ZNK12UserFunction9canonicalEb
00000000001285a0 W _ZNK12UserFunction9get_sym_ZEv
00000000001284b0 W _ZNK12UserFunction9get_ufun1Ev
0000000000128590 W _ZNK12UserFunction9has_alphaEv
00000000000ba020 W _ZNK12UserFunction9is_lambdaEv
00000000001ade50 W _ZNK13Bif_F12_BINOM13get_scalar_f2Ev
00000000001adff0 W _ZNK13Bif_F12_MINUS13get_scalar_f2Ev
00000000001a7ee0 T _ZNK13Bif_F12_MINUS18get_dyadic_inverseEv
00000000001a7ee0 T _ZNK13Bif_F12_MINUS19get_monadic_inverseEv
00000000001adfb0 W _ZNK13Bif_F12_POWER13get_scalar_f2Ev
00000000001a7e50 T _ZNK13Bif_F12_POWER18get_dyadic_inverseEv
00000000001a7e50 T _ZNK13Bif_F12_POWER19get_monadic_inverseEv
00000000001ae0c0 W _ZNK13Bif_F12_STILE13get_scalar_f2Ev
00000000001ae020 W _ZNK13Bif_F12_TIMES13get_scalar_f2Ev
00000000001a7e70 T _ZNK13Bif_F12_TIMES18get_dyadic_inverseEv
00000000001ae040 W _ZNK13Bif_F12_TIMES9get_assocEv
00000000001adfa0 W _ZNK13Bif_F2_NAND_B13get_scalar_f2Ev
00000000001ade90 W _ZNK13Bif_F2_UNEQ_B13get_scalar_f2Ev
0000000000171240 T _ZNK13DLX_Root_Node10deep_checkEv
0000000000170b40 T _ZNK13DLX_Root_Node7displayERSo
00000000001020f0 T _ZNK13DynamicObject10pIndexExprEv
0000000000101b70 T _ZNK13DynamicObject11print_chainERSo
0000000000101e00 T _ZNK13DynamicObject5printERSo
00000000001020e0 T _ZNK13DynamicObject6pValueEv
0000000000101d20 T _ZNK13DynamicObject9print_newERSoPKc
000000000010f460 T _ZNK13IndexIterator5printERSo
00000000001bb390 W _ZNK13RETRACT_VAR_c11get_sigNameEv
00000000001bb3a0 W _ZNK13RETRACT_VAR_c21get__RETRACT_VAR__keyEv
00000000001c36a0 W _ZNK13RETRACT_VAR_c5printERSo
00000000001bd000 W _ZNK13RETRACT_VAR_c5storeERNSt7__cxx1112basic_stringIcSt11char_traitsIcESaIcEEE
00000000001bb380 W _ZNK13RETRACT_VAR_c9get_sigIDEv
00000000001bb400 W _ZNK13SET_CONTROL_c11get_sigNameEv
00000000001bb410 W _ZNK13SET_CONTROL_c21get__SET_CONTROL__keyEv
00000000001bb420 W _ZNK13SET_CONTROL_c29get__SET_CONTROL__new_controlEv
00000000001c34e0 W _ZNK13SET_CONTROL_c5printERSo
00000000001beb40 W _ZNK13SET_CONTROL_c5storeERNSt7__cxx1112basic_stringIcSt11char_traitsIcESaIcEEE
00000000001bb3f0 W _ZNK13SET_CONTROL_c9get_sigIDEv
00000000001c28f0 W _ZNK13Sig_item_xintImLi8EE5printERSo
0000000000107c70 W _ZNK13StatementList8get_nameEv
00000000001bb4b0 W _ZNK14ASSIGN_VALUE_c11get_sigNameEv
00000000001bb4c0 W _ZNK14ASSIGN_VALUE_c22get__ASSIGN_VALUE__keyEv
00000000001bc3c0 W _ZNK14ASSIGN_VALUE_c28get__ASSIGN_VALUE__cdr_valueB5cxx11Ev
00000000001c3300 W _ZNK14ASSIGN_VALUE_c5printERSo
00000000001bf580 W _ZNK14ASSIGN_VALUE_c5storeERNSt7__cxx1112basic_stringIcSt11char_traitsIcESaIcEEE
00000000001bb4a0 W _ZNK14ASSIGN_VALUE_c9get_sigIDEv
00000000001ae060 W _ZNK14Bif_F12_CIRCLE13get_scalar_f2Ev
00000000001a7ef0 T _ZNK14Bif_F12_CIRCLE18get_dyadic_inverseEv
00000000001a7ef0 T _ZNK14Bif_F12_CIRCLE19get_monadic_inverseEv
00000000001ae050 W _ZNK14Bif_F12_DIVIDE13get_scalar_f2Ev
00000000001a7ea0 T _ZNK14Bif_F12_DIVIDE18get_dyadic_inverseEv
00000000001a7ea0 T _ZNK14Bif_F12_DIVIDE19get_monadic_inverseEv
00000000001ae0a0 W _ZNK14Bif_F12_RND_DN13get_scalar_f2Ev
00000000001ae0b0 W _ZNK14Bif_F12_RND_DN9get_assocEv
00000000001ae080 W _ZNK14Bif_F12_RND_UP13get_scalar_f2Ev
00000000001ae090 W _ZNK14Bif_F12_RND_UP9get_assocEv
000000000014ea20 W _ZNK14Bif_F1_EXECUTE11may_push_SIEv
00000000001ade80 W _ZNK14Bif_F2_EQUAL_B13get_scalar_f2Ev
00000000001adea0 W _ZNK14Bif_F2_GREATER13get_scalar_f2Ev
00000000000ce280 W _ZNK14Bif_OPER1_EACH11may_push_SIEv
00000000000dcda0 W _ZNK14Bif_OPER1_SCAN11may_push_SIEv
00000000000d6c80 W _ZNK14Bif_OPER2_RANK11may_push_SIEv
00000000000c66e0 T _ZNK14CollatingCache10find_entryE7Unicode
00000000001287a0 T _ZNK14NativeFunction10has_resultEv
0000000000128970 T _ZNK14NativeFunction11is_operatorEv
0000000000128c00 T _ZNK14NativeFunction16print_propertiesERSoi
0000000000128d20 T _ZNK14NativeFunction5printERSo
000000000012b9d0 W _ZNK14NativeFunction8get_nameEv
00000000001287b0 T _ZNK14NativeFunction9canonicalEb
000000000012b9c0 W _ZNK14NativeFunction9is_nativeEv
00000000001ade40 W _ZNK14ScalarFunction10has_resultEv
00000000001b6150 T _ZNK14StateIndicator11show_ownersERSoRK5Value
00000000001b7330 T _ZNK14StateIndicator13function_nameEv
00000000001b4af0 T _ZNK14StateIndicator13uses_functionEPK12UserFunction
00000000001b6100 T _ZNK14StateIndicator17unmark_all_valuesEv
00000000001b6e90 T _ZNK14StateIndicator19get_parse_mode_nameEv
00000000001b6fa0 T _ZNK14StateIndicator4infoERSoPKc
00000000001b5620 T _ZNK14StateIndicator4listERSo7SI_mode
00000000001b4b20 T _ZNK14StateIndicator5printERSo
00000000001b5d00 T _ZNK14StateIndicator6indentERSo
00000000001b6780 T _ZNK14StateIndicator8get_lineEv
00000000001b7160 T _ZNK14StateIndicator8nth_pushEPK6Symboli
00000000001cd530 T _ZNK14SystemVariable14get_attributesEiP4Cell
00000000001ccf00 T _ZNK14SystemVariable5printERSo
00000000001e4e90 T _ZNK14Thread_context5printERSo
00000000001ae010 W _ZNK15Bif_F12_WITHOUT13get_scalar_f2Ev
00000000000d15a0 W _ZNK15Bif_OPER2_INNER11may_push_SIEv
00000000000cfab0 W _ZNK15Bif_OPER2_POWER11may_push_SIEv
000000000010c4f0 W _ZNK15DerivedFunction10has_resultEv
000000000010c4c0 W _ZNK15DerivedFunction10is_derivedEv
000000000010c530 W _ZNK15DerivedFunction11may_push_SIEv
000000000010b270 T _ZNK15DerivedFunction16print_propertiesERSoi
000000000010b150 T _ZNK15DerivedFunction5printERSo
000000000014e9f0 W _ZNK15LvalCell_picked19is_picked_lval_cellEv
00000000001bb670 W _ZNK15MATCH_OR_MAKE_c11get_sigNameEv
00000000001bb680 W _ZNK15MATCH_OR_MAKE_c27get__MATCH_OR_MAKE__to_procEv
00000000001bc360 W _ZNK15MATCH_OR_MAKE_c27get__MATCH_OR_MAKE__varnameB5cxx11Ev
00000000001bb6a0 W _ZNK15MATCH_OR_MAKE_c28get__MATCH_OR_MAKE__to_grandEv
00000000001bb6b0 W _ZNK15MATCH_OR_MAKE_c29get__MATCH_OR_MAKE__from_procEv
00000000001bb690 W _ZNK15MATCH_OR_MAKE_c29get__MATCH_OR_MAKE__to_parentEv
00000000001bb6d0 W _ZNK15MATCH_OR_MAKE_c30get__MATCH_OR_MAKE__from_grandEv
00000000001bb6c0 W _ZNK15MATCH_OR_MAKE_c31get__MATCH_OR_MAKE__from_parentEv
00000000001c13e0 W _ZNK15MATCH_OR_MAKE_c5printERSo
00000000001c02a0 W _ZNK15MATCH_OR_MAKE_c5storeERNSt7__cxx1112basic_stringIcSt11char_traitsIcESaIcEEE
00000000001bb660 W _ZNK15MATCH_OR_MAKE_c9get_sigIDEv
00000000001bba80 W _ZNK15PRINT_SVAR_DB_c11get_sigNameEv
00000000001bd260 W _ZNK15PRINT_SVAR_DB_c5printERSo
00000000001bc4d0 W _ZNK15PRINT_SVAR_DB_c5storeERNSt7__cxx1112basic_stringIcSt11char_traitsIcESaIcEEE
00000000001bba70 W _ZNK15PRINT_SVAR_DB_c9get_sigIDEv
00000000001bba30 W _ZNK15READ_WSWS_VAR_c11get_sigNameEv
00000000001bba40 W _ZNK15READ_WSWS_VAR_c23get__READ_WSWS_VAR__keyEv
00000000001c2a40 W _ZNK15READ_WSWS_VAR_c5printERSo
00000000001bc8e0 W _ZNK15READ_WSWS_VAR_c5storeERNSt7__cxx1112basic_stringIcSt11char_traitsIcESaIcEEE
00000000001bba20 W _ZNK15READ_WSWS_VAR_c9get_sigIDEv
00000000001bb360 W _ZNK15RETRACT_OFFER_c11get_sigNameEv
00000000001bb370 W _ZNK15RETRACT_OFFER_c23get__RETRACT_OFFER__keyEv
00000000001c3750 W _ZNK15RETRACT_OFFER_c5printERSo
00000000001bcda0 W _ZNK15RETRACT_OFFER_c5storeERNSt7__cxx1112basic_stringIcSt11char_traitsIcESaIcEEE
00000000001bb350 W _ZNK15RETRACT_OFFER_c9get_sigIDEv
00000000001c0f10 W _ZNK15Sig_item_string5printERSo
00000000001c0de0 W _ZNK15Sig_item_string5storeERNSt7__cxx1112basic_stringIcSt11char_traitsIcESaIcEEE
00000000001bb4e0 W _ZNK15SVAR_ASSIGNED_c11get_sigNameEv
00000000001bb4f0 W _ZNK15SVAR_ASSIGNED_c23get__SVAR_ASSIGNED__keyEv
00000000001bb500 W _ZNK15SVAR_ASSIGNED_c25get__SVAR_ASSIGNED__errorEv
00000000001bc390 W _ZNK15SVAR_ASSIGNED_c29get__SVAR_ASSIGNED__error_locB5cxx11Ev
00000000001c3210 W _ZNK15SVAR_ASSIGNED_c5printERSo
00000000001bfc60 W _ZNK15SVAR_ASSIGNED_c5storeERNSt7__cxx1112basic_stringIcSt11char_traitsIcESaIcEEE
00000000001bb4d0 W _ZNK15SVAR_ASSIGNED_c9get_sigIDEv
00000000001bba60 W _ZNK15WSWS_VALUE_IS_c11get_sigNameEv
00000000001bc2a0 W _ZNK15WSWS_VALUE_IS_c29get__WSWS_VALUE_IS__cdr_valueB5cxx11Ev
00000000001c11d0 W _ZNK15WSWS_VALUE_IS_c5printERSo
00000000001bf040 W _ZNK15WSWS_VALUE_IS_c5storeERNSt7__cxx1112basic_stringIcSt11char_traitsIcESaIcEEE
00000000001bba50 W _ZNK15WSWS_VALUE_IS_c9get_sigIDEv
00000000001bb750 W _ZNK16OFFERING_ID_IS_c11get_sigNameEv
00000000001bb760 W _ZNK16OFFERING_ID_IS_c25get__OFFERING_ID_IS__procEv
00000000001bb780 W _ZNK16OFFERING_ID_IS_c26get__OFFERING_ID_IS__grandEv
00000000001bb770 W _ZNK16OFFERING_ID_IS_c27get__OFFERING_ID_IS__parentEv
00000000001bea50 W _ZNK16OFFERING_ID_IS_c5printERSo
00000000001bdcd0 W _ZNK16OFFERING_ID_IS_c5storeERNSt7__cxx1112basic_stringIcSt11char_traitsIcESaIcEEE
00000000001bb740 W _ZNK16OFFERING_ID_IS_c9get_sigIDEv
00000000001bb880 W _ZNK16PAIRING_KEY_IS_c11get_sigNameEv
00000000001bb890 W _ZNK16PAIRING_KEY_IS_c32get__PAIRING_KEY_IS__pairing_keyEv
00000000001c2db0 W _ZNK16PAIRING_KEY_IS_c5printERSo
00000000001bca10 W _ZNK16PAIRING_KEY_IS_c5storeERNSt7__cxx1112basic_stringIcSt11char_traitsIcESaIcEEE
00000000001bb870 W _ZNK16PAIRING_KEY_IS_c9get_sigIDEv
00000000001bb5d0 W _ZNK16SVAR_RECORD_IS_c11get_sigNameEv
00000000001bc240 W _ZNK16SVAR_RECORD_IS_c27get__SVAR_RECORD_IS__recordB5cxx11Ev
00000000001c1540 W _ZNK16SVAR_RECORD_IS_c5printERSo
00000000001becc0 W _ZNK16SVAR_RECORD_IS_c5storeERNSt7__cxx1112basic_stringIcSt11char_traitsIcESaIcEEE
00000000001bb5c0 W _ZNK16SVAR_RECORD_IS_c9get_sigIDEv
00000000001bba00 W _ZNK17ASSIGN_WSWS_VAR_c11get_sigNameEv
00000000001bba10 W _ZNK17ASSIGN_WSWS_VAR_c25get__ASSIGN_WSWS_VAR__keyEv
00000000001bc2d0 W _ZNK17ASSIGN_WSWS_VAR_c31get__ASSIGN_WSWS_VAR__cdr_valueB5cxx11Ev
00000000001c2af0 W _ZNK17ASSIGN_WSWS_VAR_c5printERSo
00000000001bf7b0 W _ZNK17ASSIGN_WSWS_VAR_c5storeERNSt7__cxx1112basic_stringIcSt11char_traitsIcESaIcEEE
00000000001bb9f0 W _ZNK17ASSIGN_WSWS_VAR_c9get_sigIDEv
00000000000c4e00 W _ZNK17PrimitiveFunction10has_resultEv
000000000013d6b0 T _ZNK17PrimitiveFunction16print_propertiesERSoi
000000000013d5e0 T _ZNK17PrimitiveFunction5printERSo
00000000000cbb90 W _ZNK17PrimitiveOperator11is_operatorEv
00000000000cbba0 W _ZNK17PrimitiveOperator15get_fun_valenceEv
00000000000cbbb0 W _ZNK17PrimitiveOperator16get_oper_valenceEv
00000000001a25a0 W _ZNK17RO_SystemVariable11is_readonlyEv
00000000001bbaa0 W _ZNK17SVAR_DB_PRINTED_c11get_sigNameEv
00000000001bc270 W _ZNK17SVAR_DB_PRINTED_c30get__SVAR_DB_PRINTED__printoutB5cxx11Ev
00000000001c1120 W _ZNK17SVAR_DB_PRINTED_c5printERSo
00000000001bf200 W _ZNK17SVAR_DB_PRINTED_c5storeERNSt7__cxx1112basic_stringIcSt11char_traitsIcESaIcEEE
00000000001bba90 W _ZNK17SVAR_DB_PRINTED_c9get_sigIDEv
000000000010fbd0 W _ZNK17TrueIndexIterator7get_posEl
000000000010fb90 W _ZNK17TrueIndexIterator9get_valueEv
00000000001bb900 W _ZNK18CLEAR_ALL_EVENTS_c11get_sigNameEv
00000000001bb910 W _ZNK18CLEAR_ALL_EVENTS_c27get__CLEAR_ALL_EVENTS__procEv
00000000001bb930 W _ZNK18CLEAR_ALL_EVENTS_c28get__CLEAR_ALL_EVENTS__grandEv
00000000001bb920 W _ZNK18CLEAR_ALL_EVENTS_c29get__CLEAR_ALL_EVENTS__parentEv
00000000001be870 W _ZNK18CLEAR_ALL_EVENTS_c5printERSo
00000000001be0d0 W _ZNK18CLEAR_ALL_EVENTS_c5storeERNSt7__cxx1112basic_stringIcSt11char_traitsIcESaIcEEE
00000000001bb8f0 W _ZNK18CLEAR_ALL_EVENTS_c9get_sigIDEv
00000000001bb720 W _ZNK18FIND_OFFERING_ID_c11get_sigNameEv
00000000001bb730 W _ZNK18FIND_OFFERING_ID_c26get__FIND_OFFERING_ID__keyEv
00000000001c2f10 W _ZNK18FIND_OFFERING_ID_c5printERSo
00000000001bced0 W _ZNK18FIND_OFFERING_ID_c5storeERNSt7__cxx1112basic_stringIcSt11char_traitsIcESaIcEEE
00000000001bb710 W _ZNK18FIND_OFFERING_ID_c9get_sigIDEv
00000000001bb850 W _ZNK18FIND_PAIRING_KEY_c11get_sigNameEv
00000000001bb860 W _ZNK18FIND_PAIRING_KEY_c26get__FIND_PAIRING_KEY__keyEv
00000000001c2e60 W _ZNK18FIND_PAIRING_KEY_c5printERSo
00000000001bcb40 W _ZNK18FIND_PAIRING_KEY_c5storeERNSt7__cxx1112basic_stringIcSt11char_traitsIcESaIcEEE
00000000001bb840 W _ZNK18FIND_PAIRING_KEY_c9get_sigIDEv
00000000001a6a30 W _ZNK18FunctionStatistics10get_recordEv
00000000001bb7f0 W _ZNK18GET_OFFERED_VARS_c11get_sigNameEv
00000000001bb800 W _ZNK18GET_OFFERED_VARS_c38get__GET_OFFERED_VARS__offered_to_procEv
00000000001bb810 W _ZNK18GET_OFFERED_VARS_c39get__GET_OFFERED_VARS__accepted_by_procEv
00000000001be2d0 W _ZNK18GET_OFFERED_VARS_c5printERSo
00000000001bd640 W _ZNK18GET_OFFERED_VARS_c5storeERNSt7__cxx1112basic_stringIcSt11char_traitsIcESaIcEEE
00000000001bb7e0 W _ZNK18GET_OFFERED_VARS_c9get_sigIDEv
00000000001bb5f0 W _ZNK18IS_REGISTERED_ID_c11get_sigNameEv
00000000001bb600 W _ZNK18IS_REGISTERED_ID_c27get__IS_REGISTERED_ID__procEv
00000000001bb620 W _ZNK18IS_REGISTERED_ID_c28get__IS_REGISTERED_ID__grandEv
00000000001bb610 W _ZNK18IS_REGISTERED_ID_c29get__IS_REGISTERED_ID__parentEv
00000000001be960 W _ZNK18IS_REGISTERED_ID_c5printERSo
00000000001bded0 W _ZNK18IS_REGISTERED_ID_c5storeERNSt7__cxx1112basic_stringIcSt11char_traitsIcESaIcEEE
00000000001bb5e0 W _ZNK18IS_REGISTERED_ID_c9get_sigIDEv
00000000001bb830 W _ZNK18OFFERED_VARS_ARE_c11get_sigNameEv
00000000001bc300 W _ZNK18OFFERED_VARS_ARE_c35get__OFFERED_VARS_ARE__offered_varsB5cxx11Ev
00000000001c1280 W _ZNK18OFFERED_VARS_ARE_c5printERSo
00000000001bf3c0 W _ZNK18OFFERED_VARS_ARE_c5storeERNSt7__cxx1112basic_stringIcSt11char_traitsIcESaIcEEE
00000000001bb820 W _ZNK18OFFERED_VARS_ARE_c9get_sigIDEv
00000000001bb5a0 W _ZNK18READ_SVAR_RECORD_c11get_sigNameEv
00000000001bb5b0 W _ZNK18READ_SVAR_RECORD_c26get__READ_SVAR_RECORD__keyEv
00000000001c06e0 W _ZNK18READ_SVAR_RECORD_c5printERSo
00000000001bcc70 W _ZNK18READ_SVAR_RECORD_c5storeERNSt7__cxx1112basic_stringIcSt11char_traitsIcESaIcEEE
00000000001bb590 W _ZNK18READ_SVAR_RECORD_c9get_sigIDEv
000000000010fc10 W _ZNK19ElidedIndexIterator7get_posEl
000000000010fb70 W _ZNK19ElidedIndexIterator9get_valueEv
00000000001fe330 T _ZNK19UserFunction_header14pop_local_varsEv
00000000001fe450 T _ZNK19UserFunction_header16print_local_varsERSo
00000000001fe8a0 T _ZNK19UserFunction_header16print_propertiesERSoi
00000000000b3660 T _ZNK19XML_Loading_Archive10expect_tagEPKcS1_
00000000000b35a0 T _ZNK19XML_Loading_Archive6is_tagEPKc
00000000000b35d0 T _ZNK19XML_Loading_Archive9print_tagERSo
00000000001bb7a0 W _ZNK20GET_OFFERING_PROCS_c11get_sigNameEv
00000000001bb7b0 W _ZNK20GET_OFFERING_PROCS_c40get__GET_OFFERING_PROCS__offered_to_procEv
00000000001bd970 W _ZNK20GET_OFFERING_PROCS_c5printERSo
00000000001bc690 W _ZNK20GET_OFFERING_PROCS_c5storeERNSt7__cxx1112basic_stringIcSt11char_traitsIcESaIcEEE
00000000001bb790 W _ZNK20GET_OFFERING_PROCS_c9get_sigIDEv
00000000001bb7d0 W _ZNK20OFFERING_PROCS_ARE_c11get_sigNameEv
00000000001bc330 W _ZNK20OFFERING_PROCS_ARE_c39get__OFFERING_PROCS_ARE__offering_procsB5cxx11Ev
00000000001c1330 W _ZNK20OFFERING_PROCS_ARE_c5printERSo
00000000001bee80 W _ZNK20OFFERING_PROCS_ARE_c5storeERNSt7__cxx1112basic_stringIcSt11char_traitsIcESaIcEEE
00000000001bb7c0 W _ZNK20OFFERING_PROCS_ARE_c9get_sigIDEv
0000000000187ee0 T _ZNK20Plot_line_properties5printERSo
0000000000166380 W _ZNK20REGISTER_PROCESSOR_c11get_sigNameEv
0000000000166390 W _ZNK20REGISTER_PROCESSOR_c29get__REGISTER_PROCESSOR__procEv
00000000001663b0 W _ZNK20REGISTER_PROCESSOR_c30get__REGISTER_PROCESSOR__grandEv
00000000001663c0 W _ZNK20REGISTER_PROCESSOR_c31get__REGISTER_PROCESSOR__evconnEv
00000000001663a0 W _ZNK20REGISTER_PROCESSOR_c31get__REGISTER_PROCESSOR__parentEv
00000000001664c0 W _ZNK20REGISTER_PROCESSOR_c33get__REGISTER_PROCESSOR__prognameB5cxx11Ev
00000000001664f0 W _ZNK20REGISTER_PROCESSOR_c5printERSo
0000000000166830 W _ZNK20REGISTER_PROCESSOR_c5storeERNSt7__cxx1112basic_stringIcSt11char_traitsIcESaIcEEE
0000000000166370 W _ZNK20REGISTER_PROCESSOR_c9get_sigIDEv
00000000001a6a90 W _ZNK22CellFunctionStatistics10get_recordEv
00000000001a6a80 W _ZNK22CellFunctionStatistics16get_first_recordEv
00000000001bb6f0 W _ZNK22MATCH_OR_MAKE_RESULT_c11get_sigNameEv
00000000001bb700 W _ZNK22MATCH_OR_MAKE_RESULT_c30get__MATCH_OR_MAKE_RESULT__keyEv
00000000001c2fc0 W _ZNK22MATCH_OR_MAKE_RESULT_c5printERSo
00000000001bc7b0 W _ZNK22MATCH_OR_MAKE_RESULT_c5storeERNSt7__cxx1112basic_stringIcSt11char_traitsIcESaIcEEE
00000000001bb6e0 W _ZNK22MATCH_OR_MAKE_RESULT_c9get_sigIDEv
0000000000188bd0 T _ZNK22Plot_window_properties5printERSo
00000000000e0130 W _ZNK4Cell10bif_divideEPS_PKS_
00000000000e0470 W _ZNK4Cell10cFloatCellEv
00000000000e0240 W _ZNK4Cell10init_otherEPvR5ValuePKc
00000000000dff60 W _ZNK4Cell10is_numericEv
00000000000dffd0 W _ZNK4Cell11bif_ceilingEPS_
00000000000dfd90 T _ZNK4Cell11bif_less_eqEPS_PKS_
00000000000e0150 W _ZNK4Cell11bif_maximumEPS_PKS_
00000000000e0160 W _ZNK4Cell11bif_minimumEPS_PKS_
00000000000e0040 W _ZNK4Cell11bif_nat_logEPS_
00000000000e01f0 W _ZNK4Cell11bif_residueEPS_PKS_
00000000000dfeb0 W _ZNK4Cell11is_near_intEv
00000000000dfea0 W _ZNK4Cell11is_near_oneEv
00000000000e0110 W _ZNK4Cell12bif_binomialEPS_PKS_
00000000000e0170 W _ZNK4Cell12bif_multiplyEPS_PKS_
00000000000e0050 W _ZNK4Cell12bif_negativeEPS_
00000000000e00a0 W _ZNK4Cell12bif_pi_timesEPS_
00000000000e0120 W _ZNK4Cell12bif_subtractEPS_PKS_
00000000000e03d0 W _ZNK4Cell12cPointerCellEv
00000000000e0570 W _ZNK4Cell12get_near_intEv
00000000000dff30 W _ZNK4Cell12is_lval_cellEv
00000000000dfed0 W _ZNK4Cell12is_near_realEv
00000000000dfe90 W _ZNK4Cell12is_near_zeroEv
00000000000dff70 W _ZNK4Cell12is_real_cellEv
00000000000dfe80 W _ZNK4Cell12need_scalingERK12PrintContext
00000000000e0490 W _ZNK4Cell12vComplexCellEv
00000000000dffe0 W _ZNK4Cell13bif_conjugateEPS_
00000000000dfff0 W _ZNK4Cell13bif_directionEPS_
00000000000e0010 W _ZNK4Cell13bif_factorialEPS_
00000000000dfde0 T _ZNK4Cell13bif_less_thanEPS_PKS_
00000000000e0140 W _ZNK4Cell13bif_logarithmEPS_PKS_
00000000000e0030 W _ZNK4Cell13bif_magnitudeEPS_
00000000000dfc70 T _ZNK4Cell13bif_not_equalEPS_PKS_
00000000000dffa0 W _ZNK4Cell13get_cell_typeEv
00000000000dffc0 W _ZNK4Cell13get_classnameEv
00000000000e0390 W _ZNK4Cell13get_int_valueEv
00000000000e0590 W _ZNK4Cell13get_near_boolEv
00000000000dff00 W _ZNK4Cell13is_float_cellEv
00000000000e0200 W _ZNK4Cell14bif_circle_funEPS_PKS_
00000000000dfe30 T _ZNK4Cell14bif_greater_eqEPS_PKS_
00000000000e01d0 W _ZNK4Cell14bif_or_bitwiseEPS_PKS_
00000000000e00c0 W _ZNK4Cell14bif_reciprocalEPS_
00000000000e05f0 W _ZNK4Cell14get_byte_valueEv
00000000000e0610 W _ZNK4Cell14get_char_valueEv
00000000000e05d0 W _ZNK4Cell14get_imag_valueEv
00000000000e02f0 W _ZNK4Cell14get_lval_valueEv
00000000000e0350 W _ZNK4Cell14get_real_valueEv
00000000000e0220 W _ZNK4Cell15bif_add_inverseEPS_PKS_
00000000000e0100 W _ZNK4Cell15bif_and_bitwiseEPS_PKS_
00000000000e0000 W _ZNK4Cell15bif_exponentialEPS_
00000000000e01b0 W _ZNK4Cell15bif_nor_bitwiseEPS_PKS_
00000000000e0070 W _ZNK4Cell15bif_not_bitwiseEPS_
00000000000dff50 W _ZNK4Cell15is_complex_cellEv
00000000000dfef0 W _ZNK4Cell15is_integer_cellEv
00000000000dfec0 W _ZNK4Cell15is_near_int64_tEv
00000000000dff20 W _ZNK4Cell15is_pointer_cellEv
00000000000dfd40 T _ZNK4Cell16bif_greater_thanEPS_PKS_
00000000000e0190 W _ZNK4Cell16bif_nand_bitwiseEPS_PKS_
00000000000e0080 W _ZNK4Cell16bif_near_int64_tEPS_
00000000000dffb0 W _ZNK4Cell16get_cell_subtypeEv
00000000000dff90 W _ZNK4Cell16is_example_fieldEv
00000000000e0530 W _ZNK4Cell17bif_equal_bitwiseEPS_PKS_
00000000000e05b0 W _ZNK4Cell17get_complex_valueEv
00000000000e02d0 W _ZNK4Cell17get_pointer_valueEv
00000000000dff10 W _ZNK4Cell17is_character_cellEv
00000000000e0090 W _ZNK4Cell18bif_within_quad_CTEPS_
00000000000dff40 W _ZNK4Cell19is_picked_lval_cellEv
00000000000e0230 W _ZNK4Cell20bif_multiply_inverseEPS_PKS_
00000000000e00b0 W _ZNK4Cell20bif_pi_times_inverseEPS_
00000000000e02a0 W _ZNK4Cell20get_checked_near_intEv
00000000000e0510 W _ZNK4Cell21bif_not_equal_bitwiseEPS_PKS_
00000000000e0210 W _ZNK4Cell22bif_circle_fun_inverseEPS_PKS_
00000000000e0370 W _ZNK4Cell24character_representationERK12PrintContext
00000000000dec20 T _ZNK4Cell5equalERKS_d
00000000000e01c0 W _ZNK4Cell6bif_orEPS_PKS_
00000000000e00e0 W _ZNK4Cell7bif_addEPS_PKS_
00000000000e00f0 W _ZNK4Cell7bif_andEPS_PKS_
00000000000e01a0 W _ZNK4Cell7bif_norEPS_PKS_
00000000000e0060 W _ZNK4Cell7bif_notEPS_
00000000000e0330 W _ZNK4Cell7compareERKS_
00000000000debc0 T _ZNK4Cell7greaterERKS_
00000000000e0180 W _ZNK4Cell8bif_nandEPS_PKS_
00000000000e00d0 W _ZNK4Cell8bif_rollEPS_
00000000000e0270 W _ZNK4Cell8CDR_sizeEv
00000000000e0430 W _ZNK4Cell8cIntCellEv
00000000000ded20 T _ZNK4Cell8to_valueEPKc
00000000000dfba0 T _ZNK4Cell9bif_equalEPS_PKS_
00000000000e0020 W _ZNK4Cell9bif_floorEPS_
00000000000e01e0 W _ZNK4Cell9bif_powerEPS_PKS_
00000000000e04f0 W _ZNK4Cell9cCharCellEv
00000000000e0310 W _ZNK4Cell9cLvalCellEv
00000000000dff80 W _ZNK4Cell9is_finiteEv
00000000000e1090 T _ZNK4Doxy9bold_nameERSoPK12UserFunction
0000000000103030 T _ZNK5Error16get_error_line_3Ev
0000000000102c30 T _ZNK5Error24is_syntax_or_value_errorEv
0000000000102110 T _ZNK5Error5printERSoPKc
0000000000102930 T _ZNK5Error8is_knownEv
00000000001285e0 W _ZNK5Macro10get_macnumEv
00000000001285d0 W _ZNK5Macro8is_macroEv
0000000000122f60 T _ZNK5Nabla18get_label_and_textEiRb
0000000000122ee0 T _ZNK5Nabla7FunLine18get_label_and_textEv
0000000000122ac0 T _ZNK5Nabla7FunLine5printERSo
00000000001226e0 T _ZNK5Nabla9find_lineERK9LineLabel
00000000001a7d10 T _ZNK5Shape10check_sameERKS_9ErrorCodeS2_PKc
00000000001a7930 T _ZNK5Shape11insert_axisEil
00000000001a7c30 T _ZNK5Shape15offset_to_indexEl
00000000001a77a0 T _ZNK5Shape3absEv
00000000001a7bb0 T _ZNK5Shape9ravel_posERKS_
00000000001a7830 T _ZNK5ShapeeqERKS_
00000000001ea990 T _ZNK5Token10error_infoER10UCS_string
00000000001e5a40 T _ZNK5Token10print_quadERSo
00000000001e93a0 T _ZNK5Token10show_traceERSoRK10UCS_string13Function_Line
00000000001a1d70 W _ZNK5Token11get_apl_valEv
00000000001e8630 T _ZNK5Token11print_valueERSo
00000000001e5a60 T _ZNK5Token14print_functionERSo
00000000001e5990 T _ZNK5Token15value_use_countEv
00000000001e6340 T _ZNK5Token8tag_nameEv
00000000001e9fb0 T _ZNK5Token9canonicalE10PrintStyle
000000000020c890 T _ZNK5Value10is_complexEb
0000000000211e80 T _ZNK5Value11print_boxedERSoPKc
000000000020ef00 T _ZNK5Value12get_CDR_typeEv
000000000020cc00 T _ZNK5Value13compute_depthEv
00000000002134b0 T _ZNK5Value13get_UCS_ravelEv
000000000020c570 T _ZNK5Value13is_char_arrayEv
000000000020c800 T _ZNK5Value13is_int_vectorEv
000000000020c940 T _ZNK5Value15can_be_comparedEv
000000000020ceb0 T _ZNK5Value15deep_cell_typesEv
000000000020cdb0 T _ZNK5Value15flat_cell_typesEv
0000000000211230 T _ZNK5Value15get_col_spacingERblb
0000000000210800 T _ZNK5Value15print_structureERSoil
000000000020c0d0 T _ZNK5Value16get_enlist_countEv
000000000020fe70 T _ZNK5Value16print_propertiesERSoib
00000000002113e0 T _ZNK5Value16print_stale_infoERSoPK13DynamicObject
000000000020f360 T _ZNK5Value16total_size_nettoE8CDR_type
000000000020cfb0 T _ZNK5Value18deep_cell_subtypesEv
000000000020ce30 T _ZNK5Value18flat_cell_subtypesEv
000000000020b690 T _ZNK5Value18get_lval_cellownerEv
000000000020c4b0 T _ZNK5Value18is_apl_char_vectorEv
000000000020cae0 T _ZNK5Value18is_one_dimensionalEv
0000000000210c50 T _ZNK5Value5cloneEPKc
0000000000210560 T _ZNK5Value5debugEPKc
0000000000210d00 T _ZNK5Value5indexE7Value_P
000000000020d690 T _ZNK5Value5indexERK9IndexExpr
000000000020f4f0 T _ZNK5Value5printERSo
000000000020c240 T _ZNK5Value6enlistERP4CellRS_b
000000000020fdb0 T _ZNK5Value6print1ERSo12PrintContext
000000000020bf70 T _ZNK5Value6unmarkEv
000000000020c5d0 T _ZNK5Value7NOTCHAREv
000000000020f6c0 T _ZNK5Value8list_oneERSob
000000000020f150 T _ZNK5Value9data_sizeE8CDR_type
000000000020ba70 T _ZNK5Value9flag_infoEPKc10ValueFlagsS1_b
000000000020ca70 T _ZNK5Value9is_simpleEv
0000000000212760 T _ZNK5Value9prototypeEPKc
000000000011e350 T _ZNK6ESCmap10has_prefixEPKci
000000000011e400 T _ZNK6ESCmap8is_equalEPKci
0000000000131bc0 T _ZNK6Parser5parseERK10UCS_stringR12Token_string
00000000001316f0 T _ZNK6Parser5parseERK12Token_stringRS0_
000000000013a340 T _ZNK6Prefix11dont_reduceE10TokenClass
0000000000137bc0 T _ZNK6Prefix11print_stackERSoPKc
0000000000137db0 T _ZNK6Prefix11show_ownersEPKcRSoRK5Value
0000000000138030 T _ZNK6Prefix13get_range_lowEv
0000000000137570 T _ZNK6Prefix13uses_functionEPK12UserFunction
0000000000137fc0 T _ZNK6Prefix14get_range_highEv
00000000001377f0 T _ZNK6Prefix14is_fun_or_operEi
0000000000137aa0 T _ZNK6Prefix16is_value_bracketEv
0000000000137b40 T _ZNK6Prefix16vector_ass_countEv
000000000013a280 T _ZNK6Prefix17unmark_all_valuesEv
00000000001375f0 T _ZNK6Prefix20is_value_parenthesisEi
000000000013b110 T _ZNK6Prefix5printERSoi
00000000001cdf20 T _ZNK6Quad_L13get_apl_valueEv
00000000001d5a00 W _ZNK6Quad_L4saveERSo
00000000001ce0b0 T _ZNK6Quad_R13get_apl_valueEv
00000000001d5a20 W _ZNK6Quad_R4saveERSo
00000000001ce2f0 T _ZNK6Quad_X13get_apl_valueEv
00000000001d5a30 W _ZNK6Quad_X4saveERSo
00000000001c6360 T _ZNK6Symbol10get_SV_keyEv
0000000000192820 W _ZNK6Symbol10get_symbolEv
0000000000192800 W _ZNK6Symbol11is_readonlyEv
00000000001c69a0 T _ZNK6Symbol11show_ownersERSoRK5Value
00000000001c5780 T _ZNK6Symbol12get_functionEv
00000000001c78d0 T _ZNK6Symbol12get_SI_levelEPK5Value
00000000001c7830 T _ZNK6Symbol12get_SI_levelEPK8Function
00000000001c4b20 T _ZNK6Symbol13get_apl_valueEv
00000000001c5c20 T _ZNK6Symbol13print_verboseERSo
00000000001c4c10 T _ZNK6Symbol14get_attributesEiP4Cell
00000000001c5fa0 T _ZNK6Symbol14get_first_cellEv
00000000001c6340 T _ZNK6Symbol15can_be_assignedEv
00000000001c5f50 T _ZNK6Symbol15cant_be_definedEv
00000000001c68c0 T _ZNK6Symbol17unmark_all_valuesEv
00000000001c6fd0 T _ZNK6Symbol4dumpERSo
00000000001c4b10 T _ZNK6Symbol5printERSo
00000000000b9fc0 W _ZNK6Symbol8get_nameEv
00000000001c9580 T _ZNK6Symbol9write_OUTEP8_IO_FILERm
00000000000d2b60 W _ZNK7Bif_JOT11may_push_SIEv
00000000000d2b50 W _ZNK7Bif_JOT16get_oper_valenceEv
00000000000eb880 T _ZNK7Command16transfer_context11numeric_1TFERK17UCS_string_vector
00000000000ec4e0 T _ZNK7Command16transfer_context12function_2TFERK17UCS_string_vector
00000000000eb640 T _ZNK7Command16transfer_context7get_nrsER10UCS_stringR5Shape
00000000000ed510 T _ZNK7Command16transfer_context9array_2TFERK17UCS_string_vector
00000000000ebf80 T _ZNK7Command16transfer_context9chars_1TFERK17UCS_string_vector
0000000000112000 T _ZNK7IntCell10bif_divideEP4CellPKS0_
0000000000112f60 W _ZNK7IntCell10init_otherEPvR5ValuePKc
0000000000111240 T _ZNK7IntCell11bif_ceilingEP4Cell
0000000000112700 T _ZNK7IntCell11bif_maximumEP4CellPKS0_
00000000001118a0 T _ZNK7IntCell11bif_minimumEP4CellPKS0_
0000000000111410 T _ZNK7IntCell11bif_nat_logEP4Cell
00000000001129f0 T _ZNK7IntCell11bif_residueEP4CellPKS0_
0000000000112ee0 W _ZNK7IntCell11is_near_intEv
0000000000112ed0 W _ZNK7IntCell11is_near_oneEv
0000000000111bf0 T _ZNK7IntCell12bif_multiplyEP4CellPKS0_
0000000000111640 T _ZNK7IntCell12bif_negativeEP4Cell
0000000000111330 T _ZNK7IntCell12bif_pi_timesEP4Cell
0000000000111e90 T _ZNK7IntCell12bif_subtractEP4CellPKS0_
0000000000112ea0 W _ZNK7IntCell12get_near_intEv
0000000000112f00 W _ZNK7IntCell12is_near_realEv
0000000000112ec0 W _ZNK7IntCell12is_near_zeroEv
0000000000112e40 W _ZNK7IntCell12need_scalingERK12PrintContext
0000000000111210 T _ZNK7IntCell13bif_conjugateEP4Cell
0000000000111570 T _ZNK7IntCell13bif_directionEP4Cell
00000000001112a0 T _ZNK7IntCell13bif_factorialEP4Cell
0000000000111600 T _ZNK7IntCell13bif_magnitudeEP4Cell
0000000000112e60 W _ZNK7IntCell13get_cell_typeEv
0000000000112f10 W _ZNK7IntCell13get_classnameEv
00000000000b9fa0 W _ZNK7IntCell13get_int_valueEv
0000000000112f30 W _ZNK7IntCell13get_near_boolEv
00000000001116c0 T _ZNK7IntCell14bif_reciprocalEP4Cell
00000000001114c0 T _ZNK7IntCell14get_byte_valueEv
0000000000112e80 W _ZNK7IntCell14get_imag_valueEv
0000000000112e70 W _ZNK7IntCell14get_real_valueEv
00000000001111d0 T _ZNK7IntCell15bif_add_inverseEP4CellPKS0_
00000000001113b0 T _ZNK7IntCell15bif_exponentialEP4Cell
0000000000112e30 W _ZNK7IntCell15is_integer_cellEv
0000000000112ef0 W _ZNK7IntCell15is_near_int64_tEv
0000000000112fc0 W _ZNK7IntCell16bif_near_int64_tEP4Cell
0000000000111110 T _ZNK7IntCell16get_cell_subtypeEv
0000000000112e90 W _ZNK7IntCell17get_complex_valueEv
0000000000112f90 W _ZNK7IntCell18bif_within_quad_CTEP4Cell
00000000001111f0 T _ZNK7IntCell20bif_multiply_inverseEP4CellPKS0_
0000000000111370 T _ZNK7IntCell20bif_pi_times_inverseEP4Cell
0000000000112eb0 W _ZNK7IntCell20get_checked_near_intEv
00000000001127c0 T _ZNK7IntCell24character_representationERK12PrintContext
0000000000111810 T _ZNK7IntCell5equalERK4Celld
0000000000111d40 T _ZNK7IntCell7bif_addEP4CellPKS0_
0000000000111960 T _ZNK7IntCell7compareERK4Cell
0000000000111a30 T _ZNK7IntCell7greaterERK4Cell
0000000000111770 T _ZNK7IntCell8bif_rollEP4Cell
0000000000111b80 T _ZNK7IntCell8CDR_sizeEv
0000000000111270 T _ZNK7IntCell9bif_floorEP4Cell
0000000000112230 T _ZNK7IntCell9bif_powerEP4CellPKS0_
0000000000112e50 W _ZNK7IntCell9cIntlCellEv
00000000001cf060 T _ZNK7Quad_AI13get_apl_valueEv
0000000000163bf0 W _ZNK7Quad_EA11may_push_SIEv
0000000000163c00 W _ZNK7Quad_EB11may_push_SIEv
0000000000163c10 W _ZNK7Quad_EC11may_push_SIEv
00000000001d5000 T _ZNK7Quad_EM13get_apl_valueEv
00000000001cf620 T _ZNK7Quad_ET13get_apl_valueEv
00000000001cf830 T _ZNK7Quad_LC13get_apl_valueEv
00000000001cf950 T _ZNK7Quad_TS13get_apl_valueEv
00000000001d4680 T _ZNK7Quad_TZ15print_timestampERSol
00000000001cdbb0 T _ZNK7Quad_UL13get_apl_valueEv
00000000001a1dc0 T _ZNK7Quad_WA13get_apl_valueEv
00000000000fd990 T _ZNK7YMDhmsu3getEv
00000000000e7cc0 W _ZNK8CharCell10init_otherEPvR5ValuePKc
00000000000e7c90 W _ZNK8CharCell13get_cell_typeEv
00000000000e7ca0 W _ZNK8CharCell13get_classnameEv
00000000000e76a0 T _ZNK8CharCell14bif_or_bitwiseEP4CellPKS0_
00000000000e7760 T _ZNK8CharCell14get_byte_valueEv
00000000000b9f90 W _ZNK8CharCell14get_char_valueEv
00000000000e75e0 T _ZNK8CharCell15bif_and_bitwiseEP4CellPKS0_
00000000000e7360 T _ZNK8CharCell15bif_not_bitwiseEP4Cell
00000000000e71b0 T _ZNK8CharCell16get_cell_subtypeEv
00000000000e7220 T _ZNK8CharCell16is_example_fieldEv
00000000000e73b0 T _ZNK8CharCell17bif_equal_bitwiseEP4CellPKS0_
00000000000e7c80 W _ZNK8CharCell17is_character_cellEv
00000000000e7450 T _ZNK8CharCell21bif_not_equal_bitwiseEP4CellPKS0_
00000000000e78a0 T _ZNK8CharCell24character_representationERK12PrintContext
00000000000e7580 T _ZNK8CharCell5equalERK4Celld
00000000000e72b0 T _ZNK8CharCell7compareERK4Cell
00000000000e74f0 T _ZNK8CharCell7greaterERK4Cell
00000000000e7320 T _ZNK8CharCell8CDR_sizeEv
00000000000c4d00 W _ZNK8Function10is_derivedEv
00000000000c4cc0 W _ZNK8Function11is_operatorEv
00000000000c4d10 W _ZNK8Function11may_push_SIEv
00000000000c4d50 W _ZNK8Function12get_functionEv
00000000000c4dc0 W _ZNK8Function13get_scalar_f2Ev
000000000010aff0 T _ZNK8Function13get_signatureEv
000000000010ac40 T _ZNK8Function14get_attributesEiP4Cell
00000000000c4d20 W _ZNK8Function15get_fun_valenceEv
00000000000c4d30 W _ZNK8Function16get_oper_valenceEv
00000000000c4d70 W _ZNK8Function18get_dyadic_inverseEv
00000000000c4d80 W _ZNK8Function19get_exec_propertiesEv
00000000000c4d60 W _ZNK8Function19get_monadic_inverseEv
00000000000c4d40 W _ZNK8Function8has_axisEv
00000000000c4cf0 W _ZNK8Function8is_macroEv
00000000000c4e20 W _ZNK8Function9canonicalEb
00000000000c4dd0 W _ZNK8Function9get_assocEv
00000000000c4da0 W _ZNK8Function9get_ufun1Ev
00000000000c4db0 W _ZNK8Function9has_alphaEv
00000000000c4ce0 W _ZNK8Function9is_lambdaEv
00000000000c4cd0 W _ZNK8Function9is_nativeEv
00000000001220c0 W _ZNK8LvalCell10init_otherEPvR5ValuePKc
0000000000122030 W _ZNK8LvalCell12is_lval_cellEv
0000000000122040 W _ZNK8LvalCell13get_cell_typeEv
0000000000122050 W _ZNK8LvalCell13get_classnameEv
0000000000121c40 T _ZNK8LvalCell14get_lval_valueEv
0000000000121c50 T _ZNK8LvalCell24character_representationERK12PrintContext
0000000000122070 W _ZNK8LvalCell7greaterERK4Cell
0000000000122090 W _ZNK8LvalCell8CDR_sizeEv
00000000000b9fb0 W _ZNK8LvalCell9cLvalCellEv
00000000001cfbf0 T _ZNK8Quad_ARG13get_apl_valueEv
00000000001819e0 W _ZNK8Quad_FIO11is_operatorEv
0000000000184250 T _ZNK8Quad_GTK11window_listEv
0000000000195f10 T _ZNK8Quad_SVE13get_apl_valueEv
00000000001d0690 T _ZNK8Quad_SYL13get_apl_valueEv
000000000010a800 W _ZNK8RealCell12is_real_cellEv
00000000001a6b40 T _ZNK8RealCell13bif_logarithmEP4CellPKS0_
00000000001a76c0 W _ZNK8RealCell13get_classnameEv
00000000001a7580 T _ZNK8RealCell14bif_circle_funEP4CellPKS0_
00000000001a6d90 T _ZNK8RealCell17do_bif_circle_funEP4Celli
00000000001a7610 T _ZNK8RealCell22bif_circle_fun_inverseEP4CellPKS0_
0000000000213c50 T _ZNK8VH_entry5printERiRSoPK5ValuePKS_
00000000001bb640 W _ZNK8YES_NO_c11get_sigNameEv
00000000001bb650 W _ZNK8YES_NO_c16get__YES_NO__yesEv
00000000001bda20 W _ZNK8YES_NO_c5printERSo
00000000001be3a0 W _ZNK8YES_NO_c5storeERNSt7__cxx1112basic_stringIcSt11char_traitsIcESaIcEEE
00000000001bb630 W _ZNK8YES_NO_c9get_sigIDEv
00000000001adef0 W _ZNK9Bif_F2_OR13get_scalar_f2Ev
00000000001adf00 W _ZNK9Bif_F2_OR9get_assocEv
0000000000108cd0 T _ZNK9FloatCell10bif_divideEP4CellPKS0_
000000000010a940 W _ZNK9FloatCell10cFloatCellEv
000000000010a9b0 W _ZNK9FloatCell10init_otherEPvR5ValuePKc
0000000000109de0 T _ZNK9FloatCell11bif_ceilingEP4Cell
00000000001092c0 T _ZNK9FloatCell11bif_maximumEP4CellPKS0_
0000000000109420 T _ZNK9FloatCell11bif_minimumEP4CellPKS0_
0000000000108830 T _ZNK9FloatCell11bif_nat_logEP4Cell
000000000010a0f0 T _ZNK9FloatCell11bif_residueEP4CellPKS0_
000000000010a9f0 W _ZNK9FloatCell11is_near_intEv
000000000010a8e0 W _ZNK9FloatCell11is_near_oneEv
0000000000108b90 T _ZNK9FloatCell12bif_multiplyEP4CellPKS0_
0000000000108580 T _ZNK9FloatCell12bif_negativeEP4Cell
00000000001086d0 T _ZNK9FloatCell12bif_pi_timesEP4Cell
0000000000109640 T _ZNK9FloatCell12bif_subtractEP4CellPKS0_
000000000010a970 W _ZNK9FloatCell12get_near_intEv
000000000010a910 W _ZNK9FloatCell12is_near_realEv
000000000010a8b0 W _ZNK9FloatCell12is_near_zeroEv
000000000010aa00 W _ZNK9FloatCell12need_scalingERK12PrintContext
0000000000108530 T _ZNK9FloatCell13bif_conjugateEP4Cell
0000000000108b00 T _ZNK9FloatCell13bif_directionEP4Cell
0000000000108770 T _ZNK9FloatCell13bif_factorialEP4Cell
00000000001085d0 T _ZNK9FloatCell13bif_magnitudeEP4Cell
000000000010a840 W _ZNK9FloatCell13get_cell_typeEv
000000000010a920 W _ZNK9FloatCell13get_classnameEv
0000000000108a80 T _ZNK9FloatCell13get_near_boolEv
000000000010a810 W _ZNK9FloatCell13is_float_cellEv
0000000000108660 T _ZNK9FloatCell14bif_reciprocalEP4Cell
000000000010a860 W _ZNK9FloatCell14get_imag_valueEv
000000000010a850 W _ZNK9FloatCell14get_real_valueEv
00000000001084f0 T _ZNK9FloatCell15bif_add_inverseEP4CellPKS0_
00000000001087e0 T _ZNK9FloatCell15bif_exponentialEP4Cell
000000000010a960 W _ZNK9FloatCell15is_near_int64_tEv
00000000001098d0 T _ZNK9FloatCell16bif_near_int64_tEP4Cell
000000000010a870 W _ZNK9FloatCell17get_complex_valueEv
0000000000109ac0 T _ZNK9FloatCell18bif_within_quad_CTEP4Cell
0000000000108510 T _ZNK9FloatCell20bif_multiply_inverseEP4CellPKS0_
0000000000108720 T _ZNK9FloatCell20bif_pi_times_inverseEP4Cell
000000000010a880 W _ZNK9FloatCell20get_checked_near_intEv
00000000001088e0 T _ZNK9FloatCell24character_representationERK12PrintContext
0000000000109780 T _ZNK9FloatCell5equalERK4Celld
0000000000109580 T _ZNK9FloatCell7bif_addEP4CellPKS0_
0000000000109c80 T _ZNK9FloatCell7compareERK4Cell
0000000000109130 T _ZNK9FloatCell7greaterERK4Cell
0000000000109970 T _ZNK9FloatCell8bif_rollEP4Cell
000000000010a930 W _ZNK9FloatCell8CDR_sizeEv
0000000000109f20 T _ZNK9FloatCell9bif_floorEP4Cell
0000000000108e40 T _ZNK9FloatCell9bif_powerEP4CellPKS0_
000000000010a820 W _ZNK9FloatCell9is_finiteEv
000000000010eab0 T _ZNK9IndexExpr11check_rangeERK5Shape
000000000010ec20 T _ZNK9IndexExpr8get_axisEi
000000000010edf0 T _ZNK9IndexExpr8to_shapeEv
0000000000122b90 T _ZNK9LineLabel12print_promptEi
00000000001229b0 T _ZNK9LineLabel5printERSo
0000000000122660 T _ZNK9LineLabeleqERKS_
0000000000122780 T _ZNK9LineLabelltERKS_
00000000001bb560 W _ZNK9MAY_SET_c11get_sigNameEv
00000000001bb570 W _ZNK9MAY_SET_c17get__MAY_SET__keyEv
00000000001bb580 W _ZNK9MAY_SET_c21get__MAY_SET__attemptEv
00000000001c3070 W _ZNK9MAY_SET_c5printERSo
00000000001bd300 W _ZNK9MAY_SET_c5storeERNSt7__cxx1112basic_stringIcSt11char_traitsIcESaIcEEE
00000000001bb550 W _ZNK9MAY_SET_c9get_sigIDEv
00000000001bb520 W _ZNK9MAY_USE_c11get_sigNameEv
00000000001bb530 W _ZNK9MAY_USE_c17get__MAY_USE__keyEv
00000000001bb540 W _ZNK9MAY_USE_c21get__MAY_USE__attemptEv
00000000001c3140 W _ZNK9MAY_USE_c5printERSo
00000000001bd7d0 W _ZNK9MAY_USE_c5storeERNSt7__cxx1112basic_stringIcSt11char_traitsIcESaIcEEE
00000000001bb510 W _ZNK9MAY_USE_c9get_sigIDEv
000000000018e8a0 T _ZNK9Quad_PLOT4helpEv
00000000001d5a40 W _ZNK9Quad_Quad13get_apl_valueEv
                 U _ZNKSt12__basic_fileIcE7is_openEv
                 U _ZNKSt5ctypeIcE13_M_widen_initEv
00000000000b9f80 W _ZNKSt5ctypeIcE8do_widenEc
00000000000ba420 W _ZNKSt7__cxx1112basic_stringI7UnicodeSt11char_traitsIS1_ESaIS1_EE7compareERKS5_
                 U _ZNKSt7__cxx1115basic_stringbufIcSt11char_traitsIcESaIcEE3strEv
                 U _ZNKSt9basic_iosIcSt11char_traitsIcEE5widenEc
                 U _ZNSi3getEPclc
                 U _ZNSi3getEv
                 U _ZNSo3putEc
                 U _ZNSo5flushEv
                 U _ZNSo9_M_insertIbEERSoT_
                 U _ZNSo9_M_insertIdEERSoT_
                 U _ZNSo9_M_insertIlEERSoT_
                 U _ZNSo9_M_insertImEERSoT_
                 U _ZNSo9_M_insertIPKvEERSoT_
                 U _ZNSo9_M_insertIyEERSoT_
                 U _ZNSoC1EPSt15basic_streambufIcSt11char_traitsIcEE
                 U _ZNSoD1Ev
                 U _ZNSolsEi
                 U _ZNSt12__basic_fileIcED1Ev
00000000000c5c50 W _ZNSt12_Destroy_auxILb0EE9__destroyIP10UCS_stringEEvT_S4_
                 U _ZNSt13basic_filebufIcSt11char_traitsIcEE4openEPKcSt13_Ios_Openmode
                 U _ZNSt13basic_filebufIcSt11char_traitsIcEE4syncEv
                 U _ZNSt13basic_filebufIcSt11char_traitsIcEE5closeEv
                 U _ZNSt13basic_filebufIcSt11char_traitsIcEE5imbueERKSt6locale
                 U _ZNSt13basic_filebufIcSt11char_traitsIcEE6setbufEPcl
                 U _ZNSt13basic_filebufIcSt11char_traitsIcEE6xsgetnEPcl
                 U _ZNSt13basic_filebufIcSt11char_traitsIcEE6xsputnEPKcl
                 U _ZNSt13basic_filebufIcSt11char_traitsIcEE7seekoffElSt12_Ios_SeekdirSt13_Ios_Openmode
                 U _ZNSt13basic_filebufIcSt11char_traitsIcEE7seekposESt4fposI11__mbstate_tESt13_Ios_Openmode
                 U _ZNSt13basic_filebufIcSt11char_traitsIcEE9pbackfailEi
                 U _ZNSt13basic_filebufIcSt11char_traitsIcEE9showmanycEv
                 U _ZNSt13basic_filebufIcSt11char_traitsIcEE9underflowEv
                 U _ZNSt13basic_filebufIcSt11char_traitsIcEEC1Ev
                 U _ZNSt13basic_filebufIcSt11char_traitsIcEEC2Ev
                 U _ZNSt13basic_filebufIcSt11char_traitsIcEED1Ev
                 U _ZNSt14basic_ofstreamIcSt11char_traitsIcEEC1EPKcSt13_Ios_Openmode
                 U _ZNSt14basic_ofstreamIcSt11char_traitsIcEEC1Ev
                 U _ZNSt14basic_ofstreamIcSt11char_traitsIcEED1Ev
                 U _ZNSt15basic_streambufIcSt11char_traitsIcEE4syncEv
                 U _ZNSt15basic_streambufIcSt11char_traitsIcEE5imbueERKSt6locale
                 U _ZNSt15basic_streambufIcSt11char_traitsIcEE5uflowEv
                 U _ZNSt15basic_streambufIcSt11char_traitsIcEE6setbufEPcl
                 U _ZNSt15basic_streambufIcSt11char_traitsIcEE6xsgetnEPcl
                 U _ZNSt15basic_streambufIcSt11char_traitsIcEE6xsputnEPKcl
                 U _ZNSt15basic_streambufIcSt11char_traitsIcEE7seekoffElSt12_Ios_SeekdirSt13_Ios_Openmode
                 U _ZNSt15basic_streambufIcSt11char_traitsIcEE7seekposESt4fposI11__mbstate_tESt13_Ios_Openmode
                 U _ZNSt15basic_streambufIcSt11char_traitsIcEE9pbackfailEi
                 U _ZNSt15basic_streambufIcSt11char_traitsIcEE9showmanycEv
                 U _ZNSt15basic_streambufIcSt11char_traitsIcEE9underflowEv
                 U _ZNSt6localeC1Ev
                 U _ZNSt6localeD1Ev
00000000001a30b0 W _ZNSt6vectorI10CPU_NumberSaIS0_EE12emplace_backIJS0_EEEvDpOT_
00000000001a2f80 W _ZNSt6vectorI10CPU_NumberSaIS0_EE17_M_realloc_insertIJS0_EEEvN9__gnu_cxx17__normal_iteratorIPS0_S2_EEDpOT_
000000000021f810 W _ZNSt6vectorI10CPU_NumberSaIS0_EED1Ev
000000000021f810 W _ZNSt6vectorI10CPU_NumberSaIS0_EED2Ev
00000000000e7000 W _ZNSt6vectorI10fcall_edgeSaIS0_EE17_M_realloc_insertIJRKS0_EEEvN9__gnu_cxx17__normal_iteratorIPS0_S2_EEDpOT_
0000000000164790 W _ZNSt6vectorI10UCS_stringSaIS0_EE12emplace_backIJS0_EEEvDpOT_
0000000000158560 W _ZNSt6vectorI10UCS_stringSaIS0_EE17_M_default_appendEm
00000000000c5f70 W _ZNSt6vectorI10UCS_stringSaIS0_EE17_M_realloc_insertIJRKS0_EEEvN9__gnu_cxx17__normal_iteratorIPS0_S2_EEDpOT_
0000000000158980 W _ZNSt6vectorI10UCS_stringSaIS0_EE17_M_realloc_insertIJS0_EEEvN9__gnu_cxx17__normal_iteratorIPS0_S2_EEDpOT_
0000000000158810 W _ZNSt6vectorI10UCS_stringSaIS0_EE6insertEN9__gnu_cxx17__normal_iteratorIPKS0_S2_EERS5_
0000000000158c00 W _ZNSt6vectorI10UCS_stringSaIS0_EE7reserveEm
00000000000fc3c0 W _ZNSt6vectorI10UCS_stringSaIS0_EE8_M_eraseEN9__gnu_cxx17__normal_iteratorIPS0_S2_EE
00000000000fc450 W _ZNSt6vectorI10UCS_stringSaIS0_EE9push_backERKS0_
00000000000c5cb0 W _ZNSt6vectorI10UCS_stringSaIS0_EEaSERKS2_
00000000000c50b0 W _ZNSt6vectorI10UCS_stringSaIS0_EED1Ev
00000000000c50b0 W _ZNSt6vectorI10UCS_stringSaIS0_EED2Ev
00000000001fe130 W _ZNSt6vectorI11Function_PCSaIS0_EE12emplace_backIJS0_EEEvDpOT_
00000000001fe000 W _ZNSt6vectorI11Function_PCSaIS0_EE17_M_realloc_insertIJS0_EEEvN9__gnu_cxx17__normal_iteratorIPS0_S2_EEDpOT_
0000000000158080 W _ZNSt6vectorI11PrintBufferSaIS0_EE17_M_realloc_insertIJS0_EEEvN9__gnu_cxx17__normal_iteratorIPS0_S2_EEDpOT_
00000000001275d0 W _ZNSt6vectorI13Function_LineSaIS0_EE12emplace_backIJS0_EEEvDpOT_
00000000001274a0 W _ZNSt6vectorI13Function_LineSaIS0_EE17_M_realloc_insertIJS0_EEEvN9__gnu_cxx17__normal_iteratorIPS0_S2_EEDpOT_
00000000001afc50 W _ZNSt6vectorI13PJob_scalar_BSaIS0_EE17_M_realloc_insertIJRKS0_EEEvN9__gnu_cxx17__normal_iteratorIPS0_S2_EEDpOT_
00000000001b08c0 W _ZNSt6vectorI14PJob_scalar_ABSaIS0_EE17_M_realloc_insertIJRKS0_EEEvN9__gnu_cxx17__normal_iteratorIPS0_S2_EEDpOT_
00000000001b0af0 W _ZNSt6vectorI14PJob_scalar_ABSaIS0_EE9push_backERKS0_
00000000001ca470 W _ZNSt6vectorI14ValueStackItemSaIS0_EE12emplace_backIJS0_EEEvDpOT_
00000000001c9f50 W _ZNSt6vectorI14ValueStackItemSaIS0_EE17_M_realloc_insertIJRKS0_EEEvN9__gnu_cxx17__normal_iteratorIPS0_S2_EEDpOT_
00000000001ca1e0 W _ZNSt6vectorI14ValueStackItemSaIS0_EE17_M_realloc_insertIJS0_EEEvN9__gnu_cxx17__normal_iteratorIPS0_S2_EEDpOT_
00000000001c9eb0 W _ZNSt6vectorI14ValueStackItemSaIS0_EED1Ev
00000000001c9eb0 W _ZNSt6vectorI14ValueStackItemSaIS0_EED2Ev
0000000000173f10 W _ZNSt6vectorI15DLX_Header_NodeSaIS0_EE17_M_realloc_insertIJS0_EEEvN9__gnu_cxx17__normal_iteratorIPS0_S2_EEDpOT_
0000000000173cb0 W _ZNSt6vectorI15DLX_Header_NodeSaIS0_EE7reserveEm
00000000000c8710 W _ZNSt6vectorI19CollatingCacheEntrySaIS0_EE17_M_realloc_insertIJRKS0_EEEvN9__gnu_cxx17__normal_iteratorIPS0_S2_EEDpOT_
00000000000c85a0 W _ZNSt6vectorI19CollatingCacheEntrySaIS0_EE7reserveEm
0000000000170850 W _ZNSt6vectorI5ShapeSaIS0_EE17_M_realloc_insertIJRKS0_EEEvN9__gnu_cxx17__normal_iteratorIPS0_S2_EEDpOT_
00000000001084b0 W _ZNSt6vectorI5TokenSaIS0_EE12emplace_backIJS0_EEEvDpOT_
0000000000131ea0 W _ZNSt6vectorI5TokenSaIS0_EE17_M_default_appendEm
0000000000107de0 W _ZNSt6vectorI5TokenSaIS0_EE17_M_realloc_insertIJRKS0_EEEvN9__gnu_cxx17__normal_iteratorIPS0_S2_EEDpOT_
00000000001081e0 W _ZNSt6vectorI5TokenSaIS0_EE17_M_realloc_insertIJS0_EEEvN9__gnu_cxx17__normal_iteratorIPS0_S2_EEDpOT_
0000000000107d60 W _ZNSt6vectorI5TokenSaIS0_EED1Ev
0000000000107d60 W _ZNSt6vectorI5TokenSaIS0_EED2Ev
00000000001c3800 W _ZNSt6vectorI6AP_numSaIS0_EE17_M_realloc_insertIJRKS0_EEEvN9__gnu_cxx17__normal_iteratorIPS0_S2_EEDpOT_
0000000000199850 W _ZNSt6vectorI6AP_numSaIS0_EE17_M_realloc_insertIJS0_EEEvN9__gnu_cxx17__normal_iteratorIPS0_S2_EEDpOT_
0000000000182270 W _ZNSt6vectorI6direntSaIS0_EE17_M_realloc_insertIJRKS0_EEEvN9__gnu_cxx17__normal_iteratorIPS0_S2_EEDpOT_
00000000001080b0 W _ZNSt6vectorI6labValSaIS0_EE17_M_realloc_insertIJRKS0_EEEvN9__gnu_cxx17__normal_iteratorIPS0_S2_EEDpOT_
0000000000167470 W _ZNSt6vectorI6SvoPidSaIS0_EE17_M_realloc_insertIJRKS0_EEEvN9__gnu_cxx17__normal_iteratorIPS0_S2_EEDpOT_
00000000000ba5e0 W _ZNSt6vectorI7Value_PSaIS0_EE17_M_realloc_insertIJRKS0_EEEvN9__gnu_cxx17__normal_iteratorIPS0_S2_EEDpOT_
00000000000bb1a0 W _ZNSt6vectorI7Value_PSaIS0_EE17_M_realloc_insertIJS0_EEEvN9__gnu_cxx17__normal_iteratorIPS0_S2_EEDpOT_
0000000000174100 W _ZNSt6vectorI8DLX_NodeSaIS0_EE17_M_realloc_insertIJS0_EEEvN9__gnu_cxx17__normal_iteratorIPS0_S2_EEDpOT_
0000000000173de0 W _ZNSt6vectorI8DLX_NodeSaIS0_EE7reserveEm
0000000000167690 W _ZNSt6vectorI8ProcAuthSaIS0_EE17_M_realloc_insertIJRKS0_EEEvN9__gnu_cxx17__normal_iteratorIPS0_S2_EEDpOT_
0000000000206700 W _ZNSt6vectorI9InputFileSaIS0_EE17_M_realloc_insertIJRKS0_EEEvN9__gnu_cxx17__normal_iteratorIPS0_S2_EEDpOT_
00000000002070d0 W _ZNSt6vectorI9InputFileSaIS0_EE6insertEN9__gnu_cxx17__normal_iteratorIPKS0_S2_EERS5_
00000000001156d0 W _ZNSt6vectorI9InputFileSaIS0_EE8_M_eraseEN9__gnu_cxx17__normal_iteratorIPS0_S2_EE
0000000000206e30 W _ZNSt6vectorI9InputFileSaIS0_EE9push_backERKS0_
0000000000110f70 W _ZNSt6vectorI9InputFileSaIS0_EED1Ev
0000000000110f70 W _ZNSt6vectorI9InputFileSaIS0_EED2Ev
0000000000157cb0 W _ZNSt6vectorIbSaIbEE13_M_insert_auxESt13_Bit_iteratorb
00000000000dea70 W _ZNSt6vectorIhSaIhEE12emplace_backIJhEEEvDpOT_
00000000001f74c0 W _ZNSt6vectorIiSaIiEE12emplace_backIJiEEEvDpOT_
0000000000158430 W _ZNSt6vectorIiSaIiEE17_M_realloc_insertIJiEEEvN9__gnu_cxx17__normal_iteratorIPiS1_EEDpOT_
00000000000ba4b0 W _ZNSt6vectorIiSaIiEE17_M_realloc_insertIJRKiEEEvN9__gnu_cxx17__normal_iteratorIPiS1_EEDpOT_
00000000001c3930 W _ZNSt6vectorIjSaIjEE17_M_realloc_insertIJRKjEEEvN9__gnu_cxx17__normal_iteratorIPjS1_EEDpOT_
0000000000150260 W _ZNSt6vectorIlSaIlEE17_M_realloc_insertIJlEEEvN9__gnu_cxx17__normal_iteratorIPlS1_EEDpOT_
00000000000daab0 W _ZNSt6vectorIlSaIlEE17_M_realloc_insertIJRKlEEEvN9__gnu_cxx17__normal_iteratorIPlS1_EEDpOT_
0000000000191f40 W _ZNSt6vectorImSaImEE17_M_realloc_insertIJRKmEEEvN9__gnu_cxx17__normal_iteratorIPmS1_EEDpOT_
0000000000191f20 W _ZNSt6vectorImSaImEED1Ev
0000000000191f20 W _ZNSt6vectorImSaImEED2Ev
00000000000c5280 W _ZNSt6vectorIN14Bif_F12_FORMAT12Format_LIFERESaIS1_EE17_M_realloc_insertIJS1_EEEvN9__gnu_cxx17__normal_iteratorIPS1_S3_EEDpOT_
00000000000c5120 W _ZNSt6vectorIN14Bif_F12_FORMAT12Format_LIFERESaIS1_EED1Ev
00000000000c5120 W _ZNSt6vectorIN14Bif_F12_FORMAT12Format_LIFERESaIS1_EED2Ev
00000000001279f0 W _ZNSt6vectorIN5Nabla7FunLineESaIS1_EE12emplace_backIJS1_EEEvDpOT_
0000000000126d10 W _ZNSt6vectorIN5Nabla7FunLineESaIS1_EE17_M_realloc_insertIJRKS1_EEEvN9__gnu_cxx17__normal_iteratorIPS1_S3_EEDpOT_
0000000000127600 W _ZNSt6vectorIN5Nabla7FunLineESaIS1_EE17_M_realloc_insertIJS1_EEEvN9__gnu_cxx17__normal_iteratorIPS1_S3_EEDpOT_
0000000000127100 W _ZNSt6vectorIN5Nabla7FunLineESaIS1_EE6insertEN9__gnu_cxx17__normal_iteratorIPKS1_S3_EERS6_
00000000001273c0 W _ZNSt6vectorIN5Nabla7FunLineESaIS1_EE8_M_eraseEN9__gnu_cxx17__normal_iteratorIPS1_S3_EE
00000000000ba820 W _ZNSt6vectorIN7Command12user_commandESaIS1_EE17_M_realloc_insertIJRKS1_EEEvN9__gnu_cxx17__normal_iteratorIPS1_S3_EEDpOT_
00000000000fc150 W _ZNSt6vectorIN7Command7val_valESaIS1_EE17_M_realloc_insertIJRKS1_EEEvN9__gnu_cxx17__normal_iteratorIPS1_S3_EEDpOT_
0000000000181b70 W _ZNSt6vectorIN8Quad_FIO10file_entryESaIS1_EE17_M_realloc_insertIJRKS1_EEEvN9__gnu_cxx17__normal_iteratorIPS1_S3_EEDpOT_
0000000000182140 W _ZNSt6vectorIN8Quad_FIO10file_entryESaIS1_EE9push_backERKS1_
0000000000187b70 W _ZNSt6vectorIN8Quad_GTK12window_entryESaIS1_EE17_M_realloc_insertIJRKS1_EEEvN9__gnu_cxx17__normal_iteratorIPS1_S3_EEDpOT_
00000000000bde10 W _ZNSt6vectorIN9Backtrace6PC_srcESaIS1_EE17_M_realloc_insertIJRKS1_EEEvN9__gnu_cxx17__normal_iteratorIPS1_S3_EEDpOT_
00000000000bddf0 W _ZNSt6vectorIN9Backtrace6PC_srcESaIS1_EED1Ev
00000000000bddf0 W _ZNSt6vectorIN9Backtrace6PC_srcESaIS1_EED2Ev
0000000000195d50 W _ZNSt6vectorIP10ConnectionSaIS1_EE17_M_realloc_insertIJS1_EEEvN9__gnu_cxx17__normal_iteratorIPS1_S3_EEDpOT_
0000000000195d10 W _ZNSt6vectorIP10ConnectionSaIS1_EED1Ev
0000000000195d10 W _ZNSt6vectorIP10ConnectionSaIS1_EED2Ev
0000000000131d70 W _ZNSt6vectorIP12Token_stringSaIS1_EE17_M_realloc_insertIJRKS1_EEEvN9__gnu_cxx17__normal_iteratorIPS1_S3_EEDpOT_
000000000012ba10 W _ZNSt6vectorIP14NativeFunctionSaIS1_EE17_M_realloc_insertIJS1_EEEvN9__gnu_cxx17__normal_iteratorIPS1_S3_EEDpOT_
000000000012b9f0 W _ZNSt6vectorIP14NativeFunctionSaIS1_EED1Ev
000000000012b9f0 W _ZNSt6vectorIP14NativeFunctionSaIS1_EED2Ev
00000000001ccdd0 W _ZNSt6vectorIP6SymbolSaIS1_EE17_M_realloc_insertIJRKS1_EEEvN9__gnu_cxx17__normal_iteratorIPS1_S3_EEDpOT_
000000000013bad0 W _ZNSt6vectorIP6SymbolSaIS1_EE17_M_realloc_insertIJS1_EEEvN9__gnu_cxx17__normal_iteratorIPS1_S3_EEDpOT_
0000000000195d30 W _ZNSt6vectorIP8ProviderSaIS1_EED1Ev
0000000000195d30 W _ZNSt6vectorIP8ProviderSaIS1_EED2Ev
00000000000e6c70 W _ZNSt6vectorIPK12UserFunctionSaIS2_EE17_M_realloc_insertIJRKS2_EEEvN9__gnu_cxx17__normal_iteratorIPS2_S4_EEDpOT_
00000000002137b0 W _ZNSt6vectorIPK13DynamicObjectSaIS2_EE17_M_realloc_insertIJRKS2_EEEvN9__gnu_cxx17__normal_iteratorIPS2_S4_EEDpOT_
00000000000e6ed0 W _ZNSt6vectorIPK14StateIndicatorSaIS2_EE17_M_realloc_insertIJRKS2_EEEvN9__gnu_cxx17__normal_iteratorIPS2_S4_EEDpOT_
0000000000150390 W _ZNSt6vectorIPK4CellSaIS2_EE17_M_realloc_insertIJS2_EEEvN9__gnu_cxx17__normal_iteratorIPS2_S4_EEDpOT_
0000000000213680 W _ZNSt6vectorIPK5ValueSaIS2_EE17_M_realloc_insertIJRKS2_EEEvN9__gnu_cxx17__normal_iteratorIPS2_S4_EEDpOT_
00000000000e6da0 W _ZNSt6vectorIPK6SymbolSaIS2_EE17_M_realloc_insertIJRKS2_EEEvN9__gnu_cxx17__normal_iteratorIPS2_S4_EEDpOT_
0000000000206680 W _ZNSt6vectorIPKcSaIS1_EE14_M_insert_rvalEN9__gnu_cxx17__normal_iteratorIPKS1_S3_EEOS1_
0000000000164660 W _ZNSt6vectorIPKcSaIS1_EE17_M_realloc_insertIJRKS1_EEEvN9__gnu_cxx17__normal_iteratorIPS1_S3_EEDpOT_
0000000000206550 W _ZNSt6vectorIPKcSaIS1_EE17_M_realloc_insertIJS1_EEEvN9__gnu_cxx17__normal_iteratorIPS1_S3_EEDpOT_
00000000002064c0 W _ZNSt6vectorIPKcSaIS1_EE6insertEN9__gnu_cxx17__normal_iteratorIPKS1_S3_EERS6_
00000000001f6ad0 W _ZNSt7__cxx1112basic_stringI7UnicodeSt11char_traitsIS1_ESaIS1_EE12_M_constructEmS1_
00000000000fc280 W _ZNSt7__cxx1112basic_stringI7UnicodeSt11char_traitsIS1_ESaIS1_EE14_M_replace_auxEmmmS1_
00000000000fc380 W _ZNSt7__cxx1112basic_stringI7UnicodeSt11char_traitsIS1_ESaIS1_EE6resizeEmS1_
00000000001f69c0 W _ZNSt7__cxx1112basic_stringI7UnicodeSt11char_traitsIS1_ESaIS1_EE7reserveEm
00000000000fc0e0 W _ZNSt7__cxx1112basic_stringI7UnicodeSt11char_traitsIS1_ESaIS1_EE8_M_eraseEmm
00000000000bb010 W _ZNSt7__cxx1112basic_stringI7UnicodeSt11char_traitsIS1_ESaIS1_EE9_M_appendEPKS1_m
00000000000bb0a0 W _ZNSt7__cxx1112basic_stringI7UnicodeSt11char_traitsIS1_ESaIS1_EE9_M_assignERKS5_
00000000000bae70 W _ZNSt7__cxx1112basic_stringI7UnicodeSt11char_traitsIS1_ESaIS1_EE9_M_mutateEmmPKS1_m
00000000000e7cf0 W _ZNSt7__cxx1112basic_stringI7UnicodeSt11char_traitsIS1_ESaIS1_EE9push_backES1_
                 U _ZNSt7__cxx1112basic_stringIcSt11char_traitsIcESaIcEE10_M_replaceEmmPKcm
                 U _ZNSt7__cxx1112basic_stringIcSt11char_traitsIcESaIcEE6resizeEmc
                 U _ZNSt7__cxx1112basic_stringIcSt11char_traitsIcESaIcEE7reserveEm
                 U _ZNSt7__cxx1112basic_stringIcSt11char_traitsIcESaIcEE9_M_appendEPKcm
                 U _ZNSt7__cxx1112basic_stringIcSt11char_traitsIcESaIcEE9_M_assignERKS4_
                 U _ZNSt7__cxx1112basic_stringIcSt11char_traitsIcESaIcEE9_M_createERmm
                 U _ZNSt7__cxx1112basic_stringIcSt11char_traitsIcESaIcEE9_M_mutateEmmPKcm
                 U _ZNSt7__cxx1112basic_stringIcSt11char_traitsIcESaIcEE9push_backEc
00000000001e4b40 W _ZNSt7__cxx1112basic_stringIhSt11char_traitsIhESaIhEE6resizeEmh
00000000001823c0 W _ZNSt7__cxx1112basic_stringIhSt11char_traitsIhESaIhEE9_M_assignERKS4_
00000000000babb0 W _ZNSt7__cxx1112basic_stringIhSt11char_traitsIhESaIhEE9_M_mutateEmmPKhm
0000000000206400 W _ZNSt7__cxx1112basic_stringIhSt11char_traitsIhESaIhEEaSEOS4_
0000000000226d40 W _ZNSt7__cxx1115basic_stringbufIcSt11char_traitsIcESaIcEED0Ev
0000000000226d00 W _ZNSt7__cxx1115basic_stringbufIcSt11char_traitsIcESaIcEED1Ev
0000000000226d00 W _ZNSt7__cxx1115basic_stringbufIcSt11char_traitsIcESaIcEED2Ev
                 U _ZNSt7__cxx1118basic_stringstreamIcSt11char_traitsIcESaIcEED1Ev
                 U _ZNSt7__cxx1119basic_ostringstreamIcSt11char_traitsIcESaIcEED1Ev
                 U _ZNSt8ios_base4InitC1Ev
                 U _ZNSt8ios_base4InitD1Ev
                 U _ZNSt8ios_baseC2Ev
                 U _ZNSt8ios_baseD2Ev
                 U _ZNSt9basic_iosIcSt11char_traitsIcEE4initEPSt15basic_streambufIcS1_E
                 U _ZNSt9basic_iosIcSt11char_traitsIcEE5clearESt12_Ios_Iostate
                 U _Znwm
                 U _ZSt16__ostream_insertIcSt11char_traitsIcEERSt13basic_ostreamIT_T0_ES6_PKS3_l
                 U _ZSt16__throw_bad_castv
                 U _ZSt17__throw_bad_allocv
                 U _ZSt19__throw_logic_errorPKc
                 U _ZSt20__throw_length_errorPKc
                 U _ZSt24__throw_out_of_range_fmtPKcz
                 U _ZSt4cerr
                 U _ZSt4cout
                 U _ZSt4endlIcSt11char_traitsIcEERSt13basic_ostreamIT_T0_ES6_
                 U _ZStlsIcSt11char_traitsIcEERSt13basic_ostreamIT_T0_ES6_St8_SetfillIS3_E
                 U _ZStlsISt11char_traitsIcEERSt13basic_ostreamIcT_ES5_PKc
00000000001fc660 T _ZThn48_N12UserFunction18adjust_line_startsEv
00000000001284d0 W _ZThn48_N12UserFunction8get_ufunEv
00000000001f7c30 T _ZThn48_N12UserFunctionD0Ev
00000000001f7c00 T _ZThn48_N12UserFunctionD1Ev
0000000000127ae0 T _ZThn48_N5MacroD0Ev
0000000000127ab0 T _ZThn48_N5MacroD1Ev
00000000001f7a70 T _ZThn48_NK12UserFunction10line_startE13Function_Line
00000000001f76b0 T _ZThn48_NK12UserFunction10pushes_symEPK6Symbol
0000000000128580 W _ZThn48_NK12UserFunction14cannot_suspendEv
00000000001f7590 T _ZThn48_NK12UserFunction5printERSo
00000000001f7740 T _ZThn48_NK12UserFunction8get_lineE11Function_PC
00000000000ba000 W _ZThn48_NK12UserFunction8get_nameEv
0000000000128490 W _ZThn48_NK12UserFunction8get_ufunEv
00000000001285b0 W _ZThn48_NK12UserFunction9get_sym_ZEv
00000000004a7970 V _ZTI10Bif_F2_AND
00000000004a79d0 V _ZTI10Bif_F2_LEQ
00000000004a79e8 V _ZTI10Bif_F2_MEQ
00000000004a7a30 V _ZTI10Bif_F2_NOR
00000000004992f8 V _ZTI10Bif_REDUCE
00000000004a1250 V _ZTI10Bif_ROTATE
000000000049a390 V _ZTI10Executable
00000000004b03b8 V _ZTI10Quad_QUOTE
00000000004a3bd8 V _ZTI10Quad_TRACE
00000000004a74a8 V _ZTI10Statistics
00000000004a3ba8 V _ZTI10Stop_Trace
00000000004aabb8 V _ZTI10VALUE_IS_c
00000000004aadc8 V _ZTI11ADD_EVENT_c
00000000004a12c8 V _ZTI11Bif_F12_RHO
00000000004a7a18 V _ZTI11Bif_F2_FIND
00000000004a1310 V _ZTI11Bif_F2_LEFT
00000000004a78f8 V _ZTI11Bif_F2_LESS
00000000004a7a60 V _ZTI11Bif_F2_NAND
00000000004a79b8 V _ZTI11Bif_F2_OR_B
00000000004a7a00 V _ZTI11Bif_F2_UNEQ
000000000049b958 V _ZTI11CIN_ostream
0000000000499fe8 V _ZTI11ComplexCell
000000000049a3a0 V _ZTI11ExecuteList
00000000004aaba0 V _ZTI11GET_VALUE_c
00000000004b1cf0 V _ZTI11HTML_stream
000000000049a838 V _ZTI11NamedObject
000000000049b638 V _ZTI11NumericCell
00000000004a0db0 V _ZTI11PointerCell
00000000004aab70 V _ZTI11SET_STATE_c
00000000004a55f8 V _ZTI11Signal_base
00000000004a1100 V _ZTI12Bif_F0_ZILDE
0000000000498458 V _ZTI12Bif_F12_DROP
00000000004a7b98 V _ZTI12Bif_F12_LOGA
00000000004a1160 V _ZTI12Bif_F12_PICK
00000000004a7aa8 V _ZTI12Bif_F12_PLUS
00000000004a7ad8 V _ZTI12Bif_F12_ROLL
00000000004980e8 V _ZTI12Bif_F12_SORT
0000000000498440 V _ZTI12Bif_F12_TAKE
00000000004a7988 V _ZTI12Bif_F2_AND_B
00000000004a7910 V _ZTI12Bif_F2_EQUAL
00000000004a1130 V _ZTI12Bif_F2_INDEX
00000000004a12f8 V _ZTI12Bif_F2_INTER
00000000004a7a48 V _ZTI12Bif_F2_NOR_B
00000000004a1328 V _ZTI12Bif_F2_RIGHT
00000000004aadb0 V _ZTI12EVENTS_ARE_c
00000000004aad80 V _ZTI12GET_EVENTS_c
00000000004aab28 V _ZTI12MAKE_OFFER_c
00000000004a3a28 V _ZTI12QuadFunction
00000000004b18e0 V _ZTI12UserFunction
00000000004b1b58 V _ZTI12UTF8_filebuf
00000000004a10b8 V _ZTI12UTF8_ostream
00000000004a78e0 V _ZTI13Bif_F12_BINOM
00000000004a1190 V _ZTI13Bif_F12_COMMA
00000000004a11d8 V _ZTI13Bif_F12_EQUIV
00000000004a7ac0 V _ZTI13Bif_F12_MINUS
00000000004a7a90 V _ZTI13Bif_F12_POWER
00000000004a7b80 V _ZTI13Bif_F12_STILE
00000000004a7b08 V _ZTI13Bif_F12_TIMES
00000000004a12e0 V _ZTI13Bif_F12_UNION
00000000004a7a78 V _ZTI13Bif_F2_NAND_B
00000000004a7940 V _ZTI13Bif_F2_UNEQ_B
00000000004b1bf0 V _ZTI13DynamicObject
000000000049ab88 V _ZTI13IndexIterator
00000000004aab58 V _ZTI13RETRACT_VAR_c
00000000004aab88 V _ZTI13SET_CONTROL_c
000000000049a3b8 V _ZTI13StatementList
00000000004aabd0 V _ZTI14ASSIGN_VALUE_c
00000000004a7b38 V _ZTI14Bif_F12_CIRCLE
00000000004a11a8 V _ZTI14Bif_F12_COMMA1
00000000004a1220 V _ZTI14Bif_F12_DECODE
00000000004a7b20 V _ZTI14Bif_F12_DIVIDE
00000000004a1238 V _ZTI14Bif_F12_DOMINO
00000000004a1208 V _ZTI14Bif_F12_ENCODE
0000000000497f48 V _ZTI14Bif_F12_FORMAT
00000000004a11f0 V _ZTI14Bif_F12_NEQUIV
00000000004a7b68 V _ZTI14Bif_F12_RND_DN
00000000004a7b50 V _ZTI14Bif_F12_RND_UP
00000000004a1268 V _ZTI14Bif_F12_ROTATE
00000000004a1118 V _ZTI14Bif_F1_EXECUTE
00000000004a7928 V _ZTI14Bif_F2_EQUAL_B
00000000004a7958 V _ZTI14Bif_F2_GREATER
0000000000498938 V _ZTI14Bif_OPER1_EACH
0000000000499670 V _ZTI14Bif_OPER1_SCAN
0000000000499158 V _ZTI14Bif_OPER2_RANK
00000000004b1cd8 V _ZTI14HTML_streambuf
000000000049b498 V _ZTI14NativeFunction
00000000004a78c8 V _ZTI14ScalarFunction
00000000004b0220 V _ZTI14SystemVariable
00000000004a11c0 V _ZTI15Bif_F12_ELEMENT
00000000004a1280 V _ZTI15Bif_F12_ROTATE1
00000000004a7af0 V _ZTI15Bif_F12_WITHOUT
0000000000499688 V _ZTI15Bif_OPER1_SCAN1
0000000000498c78 V _ZTI15Bif_OPER2_INNER
0000000000498e30 V _ZTI15Bif_OPER2_OUTER
0000000000498ad8 V _ZTI15Bif_OPER2_POWER
000000000049a9e8 V _ZTI15DerivedFunction
00000000004a10d0 V _ZTI15LvalCell_picked
00000000004aac90 V _ZTI15MATCH_OR_MAKE_c
00000000004aae28 V _ZTI15PRINT_SVAR_DB_c
00000000004aadf8 V _ZTI15READ_WSWS_VAR_c
00000000004aab40 V _ZTI15RETRACT_OFFER_c
00000000004aabe8 V _ZTI15SVAR_ASSIGNED_c
00000000004aae10 V _ZTI15WSWS_VALUE_IS_c
00000000004a12b0 V _ZTI16Bif_F12_INDEX_OF
0000000000498100 V _ZTI16Bif_F12_SORT_ASC
0000000000498118 V _ZTI16Bif_F12_SORT_DES
0000000000499310 V _ZTI16Bif_OPER1_REDUCE
00000000004aacd8 V _ZTI16OFFERING_ID_IS_c
00000000004aad68 V _ZTI16PAIRING_KEY_IS_c
00000000004aac48 V _ZTI16SVAR_RECORD_IS_c
00000000004aade0 V _ZTI17ASSIGN_WSWS_VAR_c
00000000004a1148 V _ZTI17Bif_F12_PARTITION
00000000004a1298 V _ZTI17Bif_F12_TRANSPOSE
0000000000498798 V _ZTI17Bif_OPER1_COMMUTE
0000000000499328 V _ZTI17Bif_OPER1_REDUCE1
00000000004a6828 V _ZTI17NL_SystemVariable
0000000000497f30 V _ZTI17NonscalarFunction
00000000004a10e8 V _ZTI17PrimitiveFunction
0000000000498780 V _ZTI17PrimitiveOperator
00000000004a73a8 V _ZTI17RO_SystemVariable
00000000004aae40 V _ZTI17SVAR_DB_PRINTED_c
000000000049abb0 V _ZTI17TrueIndexIterator
00000000004aad98 V _ZTI18CLEAR_ALL_EVENTS_c
00000000004aacc0 V _ZTI18FIND_OFFERING_ID_c
00000000004aad50 V _ZTI18FIND_PAIRING_KEY_c
00000000004a74b8 V _ZTI18FunctionStatistics
00000000004aad20 V _ZTI18GET_OFFERED_VARS_c
00000000004aac60 V _ZTI18IS_REGISTERED_ID_c
00000000004aad38 V _ZTI18OFFERED_VARS_ARE_c
00000000004aac30 V _ZTI18READ_SVAR_RECORD_c
000000000049ab98 V _ZTI19ElidedIndexIterator
00000000004aacf0 V _ZTI20GET_OFFERING_PROCS_c
00000000004aad08 V _ZTI20OFFERING_PROCS_ARE_c
00000000004a5608 V _ZTI20REGISTER_PROCESSOR_c
00000000004a74d0 V _ZTI22CellFunctionStatistics
00000000004aaca8 V _ZTI22MATCH_OR_MAKE_RESULT_c
00000000004b1c90 V _ZTI3CHI
00000000004999b0 V _ZTI4Cell
00000000004b1c60 V _ZTI5ALPHA
0000000000497f10 V _ZTI5Error
000000000049b240 V _ZTI5Macro
00000000004b1ca8 V _ZTI5OMEGA
000000000049a3d0 V _ZTI5Token
00000000004b1c00 V _ZTI5Value
000000000049b940 V _ZTI6CinOut
000000000049b970 V _ZTI6ErrOut
00000000004b1c48 V _ZTI6LAMBDA
00000000004b02f8 V _ZTI6Quad_L
00000000004b03d0 V _ZTI6Quad_R
00000000004b0460 V _ZTI6Quad_X
00000000004b0138 V _ZTI6Symbol
00000000004b1c78 V _ZTI7ALPHA_U
0000000000498e18 V _ZTI7Bif_JOT
000000000049a2f8 V _ZTI7DiffOut
000000000049ac28 V _ZTI7IntCell
00000000004b1cc0 V _ZTI7OMEGA_U
00000000004a3a40 V _ZTI7Quad_AF
00000000004b0238 V _ZTI7Quad_AI
00000000004a3a58 V _ZTI7Quad_AT
00000000004b0268 V _ZTI7Quad_AV
00000000004a5890 V _ZTI7Quad_CR
00000000004b0280 V _ZTI7Quad_CT
00000000004a3a70 V _ZTI7Quad_DL
00000000004a3a88 V _ZTI7Quad_EA
00000000004a3aa0 V _ZTI7Quad_EB
00000000004a3ab8 V _ZTI7Quad_EC
00000000004b0298 V _ZTI7Quad_EM
00000000004a3ae8 V _ZTI7Quad_ES
00000000004b02b0 V _ZTI7Quad_ET
00000000004a3b00 V _ZTI7Quad_EX
00000000004b02c8 V _ZTI7Quad_FC
00000000004a5f10 V _ZTI7Quad_FX
00000000004b02e0 V _ZTI7Quad_IO
00000000004b0310 V _ZTI7Quad_LC
00000000004b0328 V _ZTI7Quad_LX
00000000004a3b30 V _ZTI7Quad_NA
00000000004a3b48 V _ZTI7Quad_NC
00000000004a3b60 V _ZTI7Quad_NL
00000000004b0340 V _ZTI7Quad_PP
00000000004b0358 V _ZTI7Quad_PR
00000000004b0370 V _ZTI7Quad_PS
00000000004b0388 V _ZTI7Quad_PW
00000000004a63f0 V _ZTI7Quad_RE
00000000004a6590 V _ZTI7Quad_RL
00000000004a3b78 V _ZTI7Quad_SI
00000000004b0400 V _ZTI7Quad_TC
00000000004a7208 V _ZTI7Quad_TF
00000000004b0418 V _ZTI7Quad_TS
00000000004b0430 V _ZTI7Quad_TZ
00000000004b0448 V _ZTI7Quad_UL
00000000004a73c0 V _ZTI7Quad_WA
0000000000499658 V _ZTI8Bif_SCAN
0000000000499cb0 V _ZTI8CharCell
000000000049a848 V _ZTI8Function
000000000049af38 V _ZTI8LvalCell
00000000004b0250 V _ZTI8Quad_ARG
00000000004a5a30 V _ZTI8Quad_DLX
00000000004a3ad0 V _ZTI8Quad_ENV
00000000004a5bd0 V _ZTI8Quad_FFT
00000000004a5d70 V _ZTI8Quad_FIO
00000000004a60b0 V _ZTI8Quad_GTK
00000000004a3b18 V _ZTI8Quad_INP
00000000004a6678 V _ZTI8Quad_SQL
00000000004a6840 V _ZTI8Quad_SVC
00000000004a6878 V _ZTI8Quad_SVE
00000000004a68b0 V _ZTI8Quad_SVO
00000000004a68e8 V _ZTI8Quad_SVQ
00000000004a6920 V _ZTI8Quad_SVR
00000000004a6958 V _ZTI8Quad_SVS
00000000004a6818 V _ZTI8Quad_SVx
00000000004b03e8 V _ZTI8Quad_SYL
00000000004a3b90 V _ZTI8Quad_UCS
00000000004a75c0 V _ZTI8RealCell
00000000004aac78 V _ZTI8YES_NO_c
00000000004a1178 V _ZTI9Bif_COMMA
00000000004a79a0 V _ZTI9Bif_F2_OR
0000000000497f20 V _ZTI9ErrorCode
000000000049a530 V _ZTI9FloatCell
00000000004aac18 V _ZTI9MAY_SET_c
00000000004aac00 V _ZTI9MAY_USE_c
00000000004a6250 V _ZTI9Quad_PLOT
00000000004b03a0 V _ZTI9Quad_Quad
00000000004a3bc0 V _ZTI9Quad_STOP
                 U _ZTISo
                 U _ZTISt13basic_filebufIcSt11char_traitsIcEE
                 U _ZTISt15basic_streambufIcSt11char_traitsIcEE
                 U _ZTISt9bad_alloc
                 U _ZTISt9exception
000000000024be28 V _ZTS10Bif_F2_AND
000000000024be68 V _ZTS10Bif_F2_LEQ
000000000024be78 V _ZTS10Bif_F2_MEQ
000000000024bea8 V _ZTS10Bif_F2_NOR
000000000022c8b0 V _ZTS10Bif_REDUCE
00000000002403a8 V _ZTS10Bif_ROTATE
00000000002338d0 V _ZTS10Executable
000000000024f0c0 V _ZTS10Quad_QUOTE
0000000000241960 V _ZTS10Quad_TRACE
000000000024b158 V _ZTS10Statistics
0000000000241940 V _ZTS10Stop_Trace
000000000024ccd0 V _ZTS10VALUE_IS_c
000000000024cf28 V _ZTS11ADD_EVENT_c
0000000000240438 V _ZTS11Bif_F12_RHO
000000000024be98 V _ZTS11Bif_F2_FIND
0000000000240470 V _ZTS11Bif_F2_LEFT
000000000024bdc0 V _ZTS11Bif_F2_LESS
000000000024bec8 V _ZTS11Bif_F2_NAND
000000000024be58 V _ZTS11Bif_F2_OR_B
000000000024be88 V _ZTS11Bif_F2_UNEQ
000000000023cf68 V _ZTS11CIN_ostream
0000000000232e50 V _ZTS11ComplexCell
00000000002338e0 V _ZTS11ExecuteList
000000000024ccc0 V _ZTS11GET_VALUE_c
0000000000258758 V _ZTS11HTML_stream
0000000000233b68 V _ZTS11NamedObject
000000000023cc88 V _ZTS11NumericCell
000000000023e118 V _ZTS11PointerCell
000000000024cca0 V _ZTS11SET_STATE_c
0000000000241f60 V _ZTS11Signal_base
0000000000240248 V _ZTS12Bif_F0_ZILDE
000000000022b6d8 V _ZTS12Bif_F12_DROP
000000000024bff0 V _ZTS12Bif_F12_LOGA
00000000002402a8 V _ZTS12Bif_F12_PICK
000000000024bf00 V _ZTS12Bif_F12_PLUS
000000000024bf20 V _ZTS12Bif_F12_ROLL
000000000022b1f0 V _ZTS12Bif_F12_SORT
000000000022b6c8 V _ZTS12Bif_F12_TAKE
000000000024be38 V _ZTS12Bif_F2_AND_B
000000000024bdd0 V _ZTS12Bif_F2_EQUAL
0000000000240278 V _ZTS12Bif_F2_INDEX
0000000000240460 V _ZTS12Bif_F2_INTER
000000000024beb8 V _ZTS12Bif_F2_NOR_B
0000000000240480 V _ZTS12Bif_F2_RIGHT
000000000024cf18 V _ZTS12EVENTS_ARE_c
000000000024cee8 V _ZTS12GET_EVENTS_c
000000000024cc60 V _ZTS12MAKE_OFFER_c
0000000000241840 V _ZTS12QuadFunction
0000000000254748 V _ZTS12UserFunction
0000000000256d60 V _ZTS12UTF8_filebuf
0000000000240200 V _ZTS12UTF8_ostream
000000000024bdb0 V _ZTS13Bif_F12_BINOM
00000000002402d0 V _ZTS13Bif_F12_COMMA
0000000000240320 V _ZTS13Bif_F12_EQUIV
000000000024bf10 V _ZTS13Bif_F12_MINUS
000000000024bef0 V _ZTS13Bif_F12_POWER
000000000024bfe0 V _ZTS13Bif_F12_STILE
000000000024bf50 V _ZTS13Bif_F12_TIMES
0000000000240450 V _ZTS13Bif_F12_UNION
000000000024bee0 V _ZTS13Bif_F2_NAND_B
000000000024be00 V _ZTS13Bif_F2_UNEQ_B
0000000000257850 V _ZTS13DynamicObject
0000000000234000 V _ZTS13IndexIterator
000000000024cc90 V _ZTS13RETRACT_VAR_c
000000000024ccb0 V _ZTS13SET_CONTROL_c
00000000002338f0 V _ZTS13StatementList
000000000024cce0 V _ZTS14ASSIGN_VALUE_c
000000000024bf80 V _ZTS14Bif_F12_CIRCLE
00000000002402e0 V _ZTS14Bif_F12_COMMA1
0000000000240370 V _ZTS14Bif_F12_DECODE
000000000024bf60 V _ZTS14Bif_F12_DIVIDE
0000000000240390 V _ZTS14Bif_F12_DOMINO
0000000000240350 V _ZTS14Bif_F12_ENCODE
000000000022b020 V _ZTS14Bif_F12_FORMAT
0000000000240330 V _ZTS14Bif_F12_NEQUIV
000000000024bfc0 V _ZTS14Bif_F12_RND_DN
000000000024bfa0 V _ZTS14Bif_F12_RND_UP
00000000002403c0 V _ZTS14Bif_F12_ROTATE
0000000000240260 V _ZTS14Bif_F1_EXECUTE
000000000024bde0 V _ZTS14Bif_F2_EQUAL_B
000000000024be10 V _ZTS14Bif_F2_GREATER
000000000022ba10 V _ZTS14Bif_OPER1_EACH
000000000022cb80 V _ZTS14Bif_OPER1_SCAN
000000000022c430 V _ZTS14Bif_OPER2_RANK
0000000000258740 V _ZTS14HTML_streambuf
0000000000235a60 V _ZTS14NativeFunction
000000000024bd90 V _ZTS14ScalarFunction
000000000024efb0 V _ZTS14SystemVariable
0000000000240300 V _ZTS15Bif_F12_ELEMENT
00000000002403e0 V _ZTS15Bif_F12_ROTATE1
000000000024bf30 V _ZTS15Bif_F12_WITHOUT
000000000022cba0 V _ZTS15Bif_OPER1_SCAN1
000000000022bd30 V _ZTS15Bif_OPER2_INNER
000000000022bf00 V _ZTS15Bif_OPER2_OUTER
000000000022bbd0 V _ZTS15Bif_OPER2_POWER
0000000000233c10 V _ZTS15DerivedFunction
0000000000240210 V _ZTS15LvalCell_picked
000000000024cdb0 V _ZTS15MATCH_OR_MAKE_c
000000000024cfa0 V _ZTS15PRINT_SVAR_DB_c
000000000024cf60 V _ZTS15READ_WSWS_VAR_c
000000000024cc70 V _ZTS15RETRACT_OFFER_c
000000000024cd00 V _ZTS15SVAR_ASSIGNED_c
000000000024cf80 V _ZTS15WSWS_VALUE_IS_c
0000000000240420 V _ZTS16Bif_F12_INDEX_OF
000000000022b200 V _ZTS16Bif_F12_SORT_ASC
000000000022b220 V _ZTS16Bif_F12_SORT_DES
000000000022c8c0 V _ZTS16Bif_OPER1_REDUCE
000000000024ce10 V _ZTS16OFFERING_ID_IS_c
000000000024ced0 V _ZTS16PAIRING_KEY_IS_c
000000000024cd60 V _ZTS16SVAR_RECORD_IS_c
000000000024cf40 V _ZTS17ASSIGN_WSWS_VAR_c
0000000000240290 V _ZTS17Bif_F12_PARTITION
0000000000240400 V _ZTS17Bif_F12_TRANSPOSE
000000000022b720 V _ZTS17Bif_OPER1_COMMUTE
000000000022c8e0 V _ZTS17Bif_OPER1_REDUCE1
0000000000249290 V _ZTS17NL_SystemVariable
000000000022b000 V _ZTS17NonscalarFunction
0000000000240230 V _ZTS17PrimitiveFunction
000000000022b700 V _ZTS17PrimitiveOperator
0000000000249e00 V _ZTS17RO_SystemVariable
000000000024cfc0 V _ZTS17SVAR_DB_PRINTED_c
0000000000234030 V _ZTS17TrueIndexIterator
000000000024cf00 V _ZTS18CLEAR_ALL_EVENTS_c
000000000024cdf0 V _ZTS18FIND_OFFERING_ID_c
000000000024ceb0 V _ZTS18FIND_PAIRING_KEY_c
000000000024b170 V _ZTS18FunctionStatistics
000000000024ce70 V _ZTS18GET_OFFERED_VARS_c
000000000024cd80 V _ZTS18IS_REGISTERED_ID_c
000000000024ce90 V _ZTS18OFFERED_VARS_ARE_c
000000000024cd40 V _ZTS18READ_SVAR_RECORD_c
0000000000234010 V _ZTS19ElidedIndexIterator
000000000024ce30 V _ZTS20GET_OFFERING_PROCS_c
000000000024ce50 V _ZTS20OFFERING_PROCS_ARE_c
0000000000241f70 V _ZTS20REGISTER_PROCESSOR_c
000000000024b190 V _ZTS22CellFunctionStatistics
000000000024cdd0 V _ZTS22MATCH_OR_MAKE_RESULT_c
0000000000258721 V _ZTS3CHI
000000000022cfa3 V _ZTS4Cell
0000000000258710 V _ZTS5ALPHA
0000000000229771 V _ZTS5Error
000000000023558a V _ZTS5Macro
0000000000258726 V _ZTS5OMEGA
0000000000233900 V _ZTS5Token
0000000000257860 V _ZTS5Value
000000000023cf60 V _ZTS6CinOut
000000000023cf78 V _ZTS6ErrOut
0000000000258708 V _ZTS6LAMBDA
000000000024f048 V _ZTS6Quad_L
000000000024f0d0 V _ZTS6Quad_R
000000000024f128 V _ZTS6Quad_X
000000000024d9f0 V _ZTS6Symbol
0000000000258718 V _ZTS7ALPHA_U
000000000022bee8 V _ZTS7Bif_JOT
0000000000233010 V _ZTS7DiffOut
0000000000234788 V _ZTS7IntCell
0000000000258730 V _ZTS7OMEGA_U
0000000000241850 V _ZTS7Quad_AF
000000000024efc8 V _ZTS7Quad_AI
0000000000241860 V _ZTS7Quad_AT
000000000024efe8 V _ZTS7Quad_AV
0000000000243320 V _ZTS7Quad_CR
000000000024eff8 V _ZTS7Quad_CT
0000000000241870 V _ZTS7Quad_DL
0000000000241880 V _ZTS7Quad_EA
0000000000241890 V _ZTS7Quad_EB
00000000002418a0 V _ZTS7Quad_EC
000000000024f008 V _ZTS7Quad_EM
00000000002418c0 V _ZTS7Quad_ES
000000000024f018 V _ZTS7Quad_ET
00000000002418d0 V _ZTS7Quad_EX
000000000024f028 V _ZTS7Quad_FC
0000000000246ed0 V _ZTS7Quad_FX
000000000024f038 V _ZTS7Quad_IO
000000000024f050 V _ZTS7Quad_LC
000000000024f060 V _ZTS7Quad_LX
00000000002418f0 V _ZTS7Quad_NA
0000000000241900 V _ZTS7Quad_NC
0000000000241910 V _ZTS7Quad_NL
000000000024f070 V _ZTS7Quad_PP
000000000024f080 V _ZTS7Quad_PR
000000000024f090 V _ZTS7Quad_PS
000000000024f0a0 V _ZTS7Quad_PW
00000000002486c8 V _ZTS7Quad_RE
0000000000248788 V _ZTS7Quad_RL
0000000000241920 V _ZTS7Quad_SI
000000000024f0e8 V _ZTS7Quad_TC
0000000000249c90 V _ZTS7Quad_TF
000000000024f0f8 V _ZTS7Quad_TS
000000000024f108 V _ZTS7Quad_TZ
000000000024f118 V _ZTS7Quad_UL
0000000000249e18 V _ZTS7Quad_WA
000000000022cb68 V _ZTS8Bif_SCAN
000000000022e0b8 V _ZTS8CharCell
0000000000233b78 V _ZTS8Function
0000000000235148 V _ZTS8LvalCell
000000000024efd8 V _ZTS8Quad_ARG
00000000002436c0 V _ZTS8Quad_DLX
00000000002418b0 V _ZTS8Quad_ENV
0000000000243b50 V _ZTS8Quad_FFT
0000000000246d10 V _ZTS8Quad_FIO
0000000000247790 V _ZTS8Quad_GTK
00000000002418e0 V _ZTS8Quad_INP
0000000000248dd8 V _ZTS8Quad_SQL
00000000002492a8 V _ZTS8Quad_SVC
00000000002492b8 V _ZTS8Quad_SVE
00000000002492c8 V _ZTS8Quad_SVO
00000000002492d8 V _ZTS8Quad_SVQ
00000000002492e8 V _ZTS8Quad_SVR
00000000002492f8 V _ZTS8Quad_SVS
0000000000249278 V _ZTS8Quad_SVx
000000000024f0d8 V _ZTS8Quad_SYL
0000000000241930 V _ZTS8Quad_UCS
000000000024b278 V _ZTS8RealCell
000000000024cd98 V _ZTS8YES_NO_c
00000000002402b8 V _ZTS9Bif_COMMA
000000000024be48 V _ZTS9Bif_F2_OR
0000000000229860 V _ZTS9ErrorCode
0000000000233a70 V _ZTS9FloatCell
000000000024cd28 V _ZTS9MAY_SET_c
000000000024cd18 V _ZTS9MAY_USE_c
00000000002485c8 V _ZTS9Quad_PLOT
000000000024f0b0 V _ZTS9Quad_Quad
0000000000241950 V _ZTS9Quad_STOP
000000000049b9d8 V _ZTT11CIN_ostream
00000000004b22b8 V _ZTT11HTML_stream
00000000004a1390 V _ZTT12UTF8_ostream
                 U _ZTTNSt7__cxx1118basic_stringstreamIcSt11char_traitsIcESaIcEEE
                 U _ZTTNSt7__cxx1119basic_ostringstreamIcSt11char_traitsIcESaIcEEE
                 U _ZTTSt14basic_ofstreamIcSt11char_traitsIcEE
000000000012f270 W _ZTv0_n24_N11CIN_ostreamD0Ev
000000000012f200 W _ZTv0_n24_N11CIN_ostreamD1Ev
000000000021eb60 W _ZTv0_n24_N11HTML_streamD0Ev
000000000021eaf0 W _ZTv0_n24_N11HTML_streamD1Ev
000000000014ed00 W _ZTv0_n24_N12UTF8_ostreamD0Ev
000000000014ee90 W _ZTv0_n24_N12UTF8_ostreamD1Ev
00000000004a84e0 V _ZTV10Bif_F2_AND
00000000004a8b00 V _ZTV10Bif_F2_LEQ
00000000004a8c88 V _ZTV10Bif_F2_MEQ
00000000004a8f98 V _ZTV10Bif_F2_NOR
000000000049a4c0 V _ZTV10Executable
00000000004b1320 V _ZTV10Quad_QUOTE
00000000004a5470 V _ZTV10Quad_TRACE
00000000004a74e8 V _ZTV10Statistics
00000000004abcf8 V _ZTV10VALUE_IS_c
00000000004af298 V _ZTV11ADD_EVENT_c
00000000004a1b88 V _ZTV11Bif_F12_RHO
00000000004a9bd8 V _ZTV11Bif_F2_FIND
00000000004a16f0 V _ZTV11Bif_F2_LEFT
00000000004a7d38 V _ZTV11Bif_F2_LESS
00000000004a92a8 V _ZTV11Bif_F2_NAND
00000000004a8978 V _ZTV11Bif_F2_OR_B
00000000004a8e10 V _ZTV11Bif_F2_UNEQ
000000000049b9f8 V _ZTV11CIN_ostream
000000000049a000 V _ZTV11ComplexCell
000000000049a3e0 V _ZTV11ExecuteList
00000000004aba88 V _ZTV11GET_VALUE_c
00000000004b22d8 V _ZTV11HTML_stream
000000000049b650 V _ZTV11NumericCell
00000000004a0dc8 V _ZTV11PointerCell
00000000004ab5a8 V _ZTV11SET_STATE_c
00000000004a1a00 V _ZTV12Bif_F0_ZILDE
00000000004985f8 V _ZTV12Bif_F12_DROP
00000000004aa1f8 V _ZTV12Bif_F12_LOGA
00000000004a2de8 V _ZTV12Bif_F12_PICK
00000000004aa690 V _ZTV12Bif_F12_PLUS
00000000004a9d60 V _ZTV12Bif_F12_ROLL
0000000000498470 V _ZTV12Bif_F12_TAKE
00000000004a8668 V _ZTV12Bif_F2_AND_B
00000000004a7ec0 V _ZTV12Bif_F2_EQUAL
00000000004a2f70 V _ZTV12Bif_F2_INDEX
00000000004a3590 V _ZTV12Bif_F2_INTER
00000000004a9120 V _ZTV12Bif_F2_NOR_B
00000000004a38a0 V _ZTV12Bif_F2_RIGHT
00000000004af028 V _ZTV12EVENTS_ARE_c
00000000004aeb48 V _ZTV12GET_EVENTS_c
00000000004aae58 V _ZTV12MAKE_OFFER_c
00000000004b1918 V _ZTV12UserFunction
00000000004b1b70 V _ZTV12UTF8_filebuf
00000000004a13b0 V _ZTV12UTF8_ostream
00000000004a7bb0 V _ZTV13Bif_F12_BINOM
00000000004a1e98 V _ZTV13Bif_F12_COMMA
00000000004a30f8 V _ZTV13Bif_F12_EQUIV
00000000004aa818 V _ZTV13Bif_F12_MINUS
00000000004aa070 V _ZTV13Bif_F12_POWER
00000000004a98c8 V _ZTV13Bif_F12_STILE
00000000004aa380 V _ZTV13Bif_F12_TIMES
00000000004a3718 V _ZTV13Bif_F12_UNION
00000000004a9430 V _ZTV13Bif_F2_NAND_B
00000000004a81d0 V _ZTV13Bif_F2_UNEQ_B
00000000004ab338 V _ZTV13RETRACT_VAR_c
00000000004ab818 V _ZTV13SET_CONTROL_c
000000000049a450 V _ZTV13StatementList
00000000004abf68 V _ZTV14ASSIGN_VALUE_c
00000000004aa9a0 V _ZTV14Bif_F12_CIRCLE
00000000004a2020 V _ZTV14Bif_F12_COMMA1
00000000004a27c8 V _ZTV14Bif_F12_DECODE
00000000004aa508 V _ZTV14Bif_F12_DIVIDE
00000000004a21a8 V _ZTV14Bif_F12_DOMINO
00000000004a2950 V _ZTV14Bif_F12_ENCODE
0000000000497f60 V _ZTV14Bif_F12_FORMAT
00000000004a3280 V _ZTV14Bif_F12_NEQUIV
00000000004a9740 V _ZTV14Bif_F12_RND_DN
00000000004a95b8 V _ZTV14Bif_F12_RND_UP
00000000004a2330 V _ZTV14Bif_F12_ROTATE
00000000004a3408 V _ZTV14Bif_F1_EXECUTE
00000000004a8048 V _ZTV14Bif_F2_EQUAL_B
00000000004a8358 V _ZTV14Bif_F2_GREATER
0000000000498950 V _ZTV14Bif_OPER1_EACH
00000000004996a0 V _ZTV14Bif_OPER1_SCAN
0000000000499170 V _ZTV14Bif_OPER2_RANK
00000000004b21e8 V _ZTV14HTML_streambuf
000000000049b4b0 V _ZTV14NativeFunction
00000000004a9a50 V _ZTV14ScalarFunction
00000000004b0618 V _ZTV14SystemVariable
00000000004a2ad8 V _ZTV15Bif_F12_ELEMENT
00000000004a24b8 V _ZTV15Bif_F12_ROTATE1
00000000004a9ee8 V _ZTV15Bif_F12_WITHOUT
0000000000499828 V _ZTV15Bif_OPER1_SCAN1
0000000000498c90 V _ZTV15Bif_OPER2_INNER
0000000000498fd0 V _ZTV15Bif_OPER2_OUTER
0000000000498af0 V _ZTV15Bif_OPER2_POWER
000000000049aa00 V _ZTV15DerivedFunction
00000000004a1400 V _ZTV15LvalCell_picked
00000000004ad2e8 V _ZTV15MATCH_OR_MAKE_c
00000000004afc58 V _ZTV15PRINT_SVAR_DB_c
00000000004af778 V _ZTV15READ_WSWS_VAR_c
00000000004ab0c8 V _ZTV15RETRACT_OFFER_c
00000000004ac1d8 V _ZTV15SVAR_ASSIGNED_c
00000000004af9e8 V _ZTV15WSWS_VALUE_IS_c
00000000004a1d10 V _ZTV16Bif_F12_INDEX_OF
0000000000498130 V _ZTV16Bif_F12_SORT_ASC
00000000004982b8 V _ZTV16Bif_F12_SORT_DES
0000000000499340 V _ZTV16Bif_OPER1_REDUCE
00000000004ada38 V _ZTV16OFFERING_ID_IS_c
00000000004ae8d8 V _ZTV16PAIRING_KEY_IS_c
00000000004acb98 V _ZTV16SVAR_RECORD_IS_c
00000000004af508 V _ZTV17ASSIGN_WSWS_VAR_c
00000000004a2c60 V _ZTV17Bif_F12_PARTITION
00000000004a2640 V _ZTV17Bif_F12_TRANSPOSE
00000000004987b0 V _ZTV17Bif_OPER1_COMMUTE
00000000004994c8 V _ZTV17Bif_OPER1_REDUCE1
00000000004a1878 V _ZTV17PrimitiveFunction
00000000004afec8 V _ZTV17SVAR_DB_PRINTED_c
000000000049abf8 V _ZTV17TrueIndexIterator
00000000004aedb8 V _ZTV18CLEAR_ALL_EVENTS_c
00000000004ad7c8 V _ZTV18FIND_OFFERING_ID_c
00000000004ae668 V _ZTV18FIND_PAIRING_KEY_c
00000000004a7530 V _ZTV18FunctionStatistics
00000000004ae188 V _ZTV18GET_OFFERED_VARS_c
00000000004ace08 V _ZTV18IS_REGISTERED_ID_c
00000000004ae3f8 V _ZTV18OFFERED_VARS_ARE_c
00000000004ac928 V _ZTV18READ_SVAR_RECORD_c
000000000049abc8 V _ZTV19ElidedIndexIterator
00000000004adca8 V _ZTV20GET_OFFERING_PROCS_c
00000000004adf18 V _ZTV20OFFERING_PROCS_ARE_c
00000000004a5620 V _ZTV20REGISTER_PROCESSOR_c
00000000004a7578 V _ZTV22CellFunctionStatistics
00000000004ad558 V _ZTV22MATCH_OR_MAKE_RESULT_c
00000000004b1f78 V _ZTV3CHI
00000000004999c0 V _ZTV4Cell
00000000004b1dd8 V _ZTV5ALPHA
000000000049b258 V _ZTV5Macro
00000000004b2048 V _ZTV5OMEGA
00000000004b1c28 V _ZTV5Value
000000000049ba48 V _ZTV6CinOut
000000000049bac8 V _ZTV6ErrOut
00000000004b1d08 V _ZTV6LAMBDA
00000000004b0c98 V _ZTV6Quad_L
00000000004b13f0 V _ZTV6Quad_R
00000000004b1808 V _ZTV6Quad_X
00000000004b0150 V _ZTV6Symbol
00000000004b1ea8 V _ZTV7ALPHA_U
0000000000498e48 V _ZTV7Bif_JOT
000000000049a310 V _ZTV7DiffOut
000000000049ac40 V _ZTV7IntCell
00000000004b2118 V _ZTV7OMEGA_U
00000000004a3f00 V _ZTV7Quad_AF
00000000004b06e8 V _ZTV7Quad_AI
00000000004a4088 V _ZTV7Quad_AT
00000000004b0478 V _ZTV7Quad_AV
00000000004a58a8 V _ZTV7Quad_CR
00000000004b0888 V _ZTV7Quad_CT
00000000004a4210 V _ZTV7Quad_DL
00000000004a4398 V _ZTV7Quad_EA
00000000004a4520 V _ZTV7Quad_EB
00000000004a46a8 V _ZTV7Quad_EC
00000000004b0958 V _ZTV7Quad_EM
00000000004a49b8 V _ZTV7Quad_ES
00000000004b0a28 V _ZTV7Quad_ET
00000000004a4b40 V _ZTV7Quad_EX
00000000004b0af8 V _ZTV7Quad_FC
00000000004a5f28 V _ZTV7Quad_FX
00000000004b0bc8 V _ZTV7Quad_IO
00000000004b0d70 V _ZTV7Quad_LC
00000000004b0e40 V _ZTV7Quad_LX
00000000004a3bf0 V _ZTV7Quad_NA
00000000004a4e50 V _ZTV7Quad_NC
00000000004a3d78 V _ZTV7Quad_NL
00000000004b0f10 V _ZTV7Quad_PP
00000000004b0fe0 V _ZTV7Quad_PR
00000000004b10b0 V _ZTV7Quad_PS
00000000004b1180 V _ZTV7Quad_PW
00000000004a6408 V _ZTV7Quad_RE
00000000004a65a8 V _ZTV7Quad_RL
00000000004a4fd8 V _ZTV7Quad_SI
00000000004b0548 V _ZTV7Quad_TC
00000000004a7220 V _ZTV7Quad_TF
00000000004b1598 V _ZTV7Quad_TS
00000000004b1668 V _ZTV7Quad_TZ
00000000004b1738 V _ZTV7Quad_UL
00000000004a73d8 V _ZTV7Quad_WA
0000000000499cc8 V _ZTV8CharCell
000000000049a860 V _ZTV8Function
000000000049af50 V _ZTV8LvalCell
00000000004b07b8 V _ZTV8Quad_ARG
00000000004a5a48 V _ZTV8Quad_DLX
00000000004a4830 V _ZTV8Quad_ENV
00000000004a5be8 V _ZTV8Quad_FFT
00000000004a5d88 V _ZTV8Quad_FIO
00000000004a60c8 V _ZTV8Quad_GTK
00000000004a4cc8 V _ZTV8Quad_INP
00000000004a6690 V _ZTV8Quad_SQL
00000000004a6990 V _ZTV8Quad_SVC
00000000004a6b18 V _ZTV8Quad_SVE
00000000004a6be8 V _ZTV8Quad_SVO
00000000004a6d70 V _ZTV8Quad_SVQ
00000000004a6ef8 V _ZTV8Quad_SVR
00000000004a7080 V _ZTV8Quad_SVS
00000000004b14c8 V _ZTV8Quad_SYL
00000000004a5160 V _ZTV8Quad_UCS
00000000004a75d8 V _ZTV8RealCell
00000000004ad078 V _ZTV8YES_NO_c
00000000004a87f0 V _ZTV9Bif_F2_OR
000000000049a548 V _ZTV9FloatCell
00000000004ac6b8 V _ZTV9MAY_SET_c
00000000004ac448 V _ZTV9MAY_USE_c
00000000004a6268 V _ZTV9Quad_PLOT
00000000004b1250 V _ZTV9Quad_Quad
00000000004a52e8 V _ZTV9Quad_STOP
                 U _ZTVN10__cxxabiv116__enum_type_infoE
                 U _ZTVN10__cxxabiv117__class_type_infoE
                 U _ZTVN10__cxxabiv120__si_class_type_infoE
                 U _ZTVN10__cxxabiv121__vmi_class_type_infoE
                 U _ZTVNSt7__cxx1115basic_stringbufIcSt11char_traitsIcESaIcEEE
                 U _ZTVNSt7__cxx1118basic_stringstreamIcSt11char_traitsIcESaIcEEE
                 U _ZTVNSt7__cxx1119basic_ostringstreamIcSt11char_traitsIcESaIcEEE
                 U _ZTVSt13basic_filebufIcSt11char_traitsIcEE
                 U _ZTVSt14basic_ofstreamIcSt11char_traitsIcEE
                 U _ZTVSt15basic_streambufIcSt11char_traitsIcEE
                 U _ZTVSt9basic_iosIcSt11char_traitsIcEE
00000000004c60c0 u _ZZN9Plot_data12Color_to_strEjE3ret
00000000004c6140 u _ZZN9Plot_data12Pixel_to_strEtE3ret
00000000004c6100 u _ZZN9Plot_data13double_to_strEdE3ret
00000000004c6180 u _ZZN9Plot_data15uint32_t_to_strEjE3ret
00000000004b77f0 u _ZZNK8Function19get_exec_propertiesEvE2ep
